Archive member included because of file (symbol)

c:/program files/gnu tools arm embedded/4.9 2015q2/bin/../lib/gcc/arm-none-eabi/4.9.3/../../../../arm-none-eabi/lib/armv7e-m/softfp\libg.a(lib_a-memcmp.o)
                              ..\obj\etharp.o (memcmp)
c:/program files/gnu tools arm embedded/4.9 2015q2/bin/../lib/gcc/arm-none-eabi/4.9.3/../../../../arm-none-eabi/lib/armv7e-m/softfp\libg.a(lib_a-memcpy.o)
                              ..\obj\porttcp.o (memcpy)
c:/program files/gnu tools arm embedded/4.9 2015q2/bin/../lib/gcc/arm-none-eabi/4.9.3/../../../../arm-none-eabi/lib/armv7e-m/softfp\libg.a(lib_a-memset.o)
                              ..\obj\mem.o (memset)
c:/program files/gnu tools arm embedded/4.9 2015q2/bin/../lib/gcc/arm-none-eabi/4.9.3/../../../../arm-none-eabi/lib/armv7e-m/softfp\libg.a(lib_a-printf.o)
                              ..\obj\portother.o (printf)
c:/program files/gnu tools arm embedded/4.9 2015q2/bin/../lib/gcc/arm-none-eabi/4.9.3/../../../../arm-none-eabi/lib/armv7e-m/softfp\libg.a(lib_a-snprintf.o)
                              ..\obj\portother.o (snprintf)
c:/program files/gnu tools arm embedded/4.9 2015q2/bin/../lib/gcc/arm-none-eabi/4.9.3/../../../../arm-none-eabi/lib/armv7e-m/softfp\libg.a(lib_a-strchr.o)
                              ..\obj\http_server.o (strchr)
c:/program files/gnu tools arm embedded/4.9 2015q2/bin/../lib/gcc/arm-none-eabi/4.9.3/../../../../arm-none-eabi/lib/armv7e-m/softfp\libg.a(lib_a-strcmp.o)
                              ..\obj\cfg_info.o (strcmp)
c:/program files/gnu tools arm embedded/4.9 2015q2/bin/../lib/gcc/arm-none-eabi/4.9.3/../../../../arm-none-eabi/lib/armv7e-m/softfp\libg.a(lib_a-strlen.o)
                              ..\obj\pbuf.o (strlen)
c:/program files/gnu tools arm embedded/4.9 2015q2/bin/../lib/gcc/arm-none-eabi/4.9.3/../../../../arm-none-eabi/lib/armv7e-m/softfp\libg.a(lib_a-strncmp.o)
                              ..\obj\http_server.o (strncmp)
c:/program files/gnu tools arm embedded/4.9 2015q2/bin/../lib/gcc/arm-none-eabi/4.9.3/../../../../arm-none-eabi/lib/armv7e-m/softfp\libg.a(lib_a-svfprintf.o)
                              c:/program files/gnu tools arm embedded/4.9 2015q2/bin/../lib/gcc/arm-none-eabi/4.9.3/../../../../arm-none-eabi/lib/armv7e-m/softfp\libg.a(lib_a-snprintf.o) (_svfprintf_r)
c:/program files/gnu tools arm embedded/4.9 2015q2/bin/../lib/gcc/arm-none-eabi/4.9.3/../../../../arm-none-eabi/lib/armv7e-m/softfp\libg.a(lib_a-vfprintf.o)
                              c:/program files/gnu tools arm embedded/4.9 2015q2/bin/../lib/gcc/arm-none-eabi/4.9.3/../../../../arm-none-eabi/lib/armv7e-m/softfp\libg.a(lib_a-printf.o) (_vfprintf_r)
c:/program files/gnu tools arm embedded/4.9 2015q2/bin/../lib/gcc/arm-none-eabi/4.9.3/../../../../arm-none-eabi/lib/armv7e-m/softfp\libg.a(lib_a-vprintf.o)
                              ..\obj\portother.o (vprintf)
c:/program files/gnu tools arm embedded/4.9 2015q2/bin/../lib/gcc/arm-none-eabi/4.9.3/../../../../arm-none-eabi/lib/armv7e-m/softfp\libg.a(lib_a-wsetup.o)
                              c:/program files/gnu tools arm embedded/4.9 2015q2/bin/../lib/gcc/arm-none-eabi/4.9.3/../../../../arm-none-eabi/lib/armv7e-m/softfp\libg.a(lib_a-vfprintf.o) (__swsetup_r)
c:/program files/gnu tools arm embedded/4.9 2015q2/bin/../lib/gcc/arm-none-eabi/4.9.3/../../../../arm-none-eabi/lib/armv7e-m/softfp\libg.a(lib_a-dtoa.o)
                              c:/program files/gnu tools arm embedded/4.9 2015q2/bin/../lib/gcc/arm-none-eabi/4.9.3/../../../../arm-none-eabi/lib/armv7e-m/softfp\libg.a(lib_a-svfprintf.o) (_dtoa_r)
c:/program files/gnu tools arm embedded/4.9 2015q2/bin/../lib/gcc/arm-none-eabi/4.9.3/../../../../arm-none-eabi/lib/armv7e-m/softfp\libg.a(lib_a-fflush.o)
                              c:/program files/gnu tools arm embedded/4.9 2015q2/bin/../lib/gcc/arm-none-eabi/4.9.3/../../../../arm-none-eabi/lib/armv7e-m/softfp\libg.a(lib_a-vfprintf.o) (_fflush_r)
c:/program files/gnu tools arm embedded/4.9 2015q2/bin/../lib/gcc/arm-none-eabi/4.9.3/../../../../arm-none-eabi/lib/armv7e-m/softfp\libg.a(lib_a-findfp.o)
                              c:/program files/gnu tools arm embedded/4.9 2015q2/bin/../lib/gcc/arm-none-eabi/4.9.3/../../../../arm-none-eabi/lib/armv7e-m/softfp\libg.a(lib_a-vfprintf.o) (__sinit)
c:/program files/gnu tools arm embedded/4.9 2015q2/bin/../lib/gcc/arm-none-eabi/4.9.3/../../../../arm-none-eabi/lib/armv7e-m/softfp\libg.a(lib_a-freer.o)
                              c:/program files/gnu tools arm embedded/4.9 2015q2/bin/../lib/gcc/arm-none-eabi/4.9.3/../../../../arm-none-eabi/lib/armv7e-m/softfp\libg.a(lib_a-wsetup.o) (_free_r)
c:/program files/gnu tools arm embedded/4.9 2015q2/bin/../lib/gcc/arm-none-eabi/4.9.3/../../../../arm-none-eabi/lib/armv7e-m/softfp\libg.a(lib_a-fwalk.o)
                              c:/program files/gnu tools arm embedded/4.9 2015q2/bin/../lib/gcc/arm-none-eabi/4.9.3/../../../../arm-none-eabi/lib/armv7e-m/softfp\libg.a(lib_a-findfp.o) (_fwalk)
c:/program files/gnu tools arm embedded/4.9 2015q2/bin/../lib/gcc/arm-none-eabi/4.9.3/../../../../arm-none-eabi/lib/armv7e-m/softfp\libg.a(lib_a-impure.o)
                              c:/program files/gnu tools arm embedded/4.9 2015q2/bin/../lib/gcc/arm-none-eabi/4.9.3/../../../../arm-none-eabi/lib/armv7e-m/softfp\libg.a(lib_a-fflush.o) (_global_impure_ptr)
c:/program files/gnu tools arm embedded/4.9 2015q2/bin/../lib/gcc/arm-none-eabi/4.9.3/../../../../arm-none-eabi/lib/armv7e-m/softfp\libg.a(lib_a-locale.o)
                              c:/program files/gnu tools arm embedded/4.9 2015q2/bin/../lib/gcc/arm-none-eabi/4.9.3/../../../../arm-none-eabi/lib/armv7e-m/softfp\libg.a(lib_a-svfprintf.o) (_localeconv_r)
c:/program files/gnu tools arm embedded/4.9 2015q2/bin/../lib/gcc/arm-none-eabi/4.9.3/../../../../arm-none-eabi/lib/armv7e-m/softfp\libg.a(lib_a-makebuf.o)
                              c:/program files/gnu tools arm embedded/4.9 2015q2/bin/../lib/gcc/arm-none-eabi/4.9.3/../../../../arm-none-eabi/lib/armv7e-m/softfp\libg.a(lib_a-wsetup.o) (__smakebuf_r)
c:/program files/gnu tools arm embedded/4.9 2015q2/bin/../lib/gcc/arm-none-eabi/4.9.3/../../../../arm-none-eabi/lib/armv7e-m/softfp\libg.a(lib_a-mallocr.o)
                              c:/program files/gnu tools arm embedded/4.9 2015q2/bin/../lib/gcc/arm-none-eabi/4.9.3/../../../../arm-none-eabi/lib/armv7e-m/softfp\libg.a(lib_a-svfprintf.o) (_malloc_r)
c:/program files/gnu tools arm embedded/4.9 2015q2/bin/../lib/gcc/arm-none-eabi/4.9.3/../../../../arm-none-eabi/lib/armv7e-m/softfp\libg.a(lib_a-memchr.o)
                              c:/program files/gnu tools arm embedded/4.9 2015q2/bin/../lib/gcc/arm-none-eabi/4.9.3/../../../../arm-none-eabi/lib/armv7e-m/softfp\libg.a(lib_a-svfprintf.o) (memchr)
c:/program files/gnu tools arm embedded/4.9 2015q2/bin/../lib/gcc/arm-none-eabi/4.9.3/../../../../arm-none-eabi/lib/armv7e-m/softfp\libg.a(lib_a-mlock.o)
                              c:/program files/gnu tools arm embedded/4.9 2015q2/bin/../lib/gcc/arm-none-eabi/4.9.3/../../../../arm-none-eabi/lib/armv7e-m/softfp\libg.a(lib_a-freer.o) (__malloc_lock)
c:/program files/gnu tools arm embedded/4.9 2015q2/bin/../lib/gcc/arm-none-eabi/4.9.3/../../../../arm-none-eabi/lib/armv7e-m/softfp\libg.a(lib_a-mprec.o)
                              c:/program files/gnu tools arm embedded/4.9 2015q2/bin/../lib/gcc/arm-none-eabi/4.9.3/../../../../arm-none-eabi/lib/armv7e-m/softfp\libg.a(lib_a-dtoa.o) (_Balloc)
c:/program files/gnu tools arm embedded/4.9 2015q2/bin/../lib/gcc/arm-none-eabi/4.9.3/../../../../arm-none-eabi/lib/armv7e-m/softfp\libg.a(lib_a-s_fpclassify.o)
                              c:/program files/gnu tools arm embedded/4.9 2015q2/bin/../lib/gcc/arm-none-eabi/4.9.3/../../../../arm-none-eabi/lib/armv7e-m/softfp\libg.a(lib_a-svfprintf.o) (__fpclassifyd)
c:/program files/gnu tools arm embedded/4.9 2015q2/bin/../lib/gcc/arm-none-eabi/4.9.3/../../../../arm-none-eabi/lib/armv7e-m/softfp\libg.a(lib_a-sbrkr.o)
                              c:/program files/gnu tools arm embedded/4.9 2015q2/bin/../lib/gcc/arm-none-eabi/4.9.3/../../../../arm-none-eabi/lib/armv7e-m/softfp\libg.a(lib_a-freer.o) (_sbrk_r)
c:/program files/gnu tools arm embedded/4.9 2015q2/bin/../lib/gcc/arm-none-eabi/4.9.3/../../../../arm-none-eabi/lib/armv7e-m/softfp\libg.a(lib_a-stdio.o)
                              c:/program files/gnu tools arm embedded/4.9 2015q2/bin/../lib/gcc/arm-none-eabi/4.9.3/../../../../arm-none-eabi/lib/armv7e-m/softfp\libg.a(lib_a-findfp.o) (__sread)
c:/program files/gnu tools arm embedded/4.9 2015q2/bin/../lib/gcc/arm-none-eabi/4.9.3/../../../../arm-none-eabi/lib/armv7e-m/softfp\libg.a(lib_a-svfiprintf.o)
                              c:/program files/gnu tools arm embedded/4.9 2015q2/bin/../lib/gcc/arm-none-eabi/4.9.3/../../../../arm-none-eabi/lib/armv7e-m/softfp\libg.a(lib_a-svfprintf.o) (__ssprint_r)
c:/program files/gnu tools arm embedded/4.9 2015q2/bin/../lib/gcc/arm-none-eabi/4.9.3/../../../../arm-none-eabi/lib/armv7e-m/softfp\libg.a(lib_a-vfiprintf.o)
                              c:/program files/gnu tools arm embedded/4.9 2015q2/bin/../lib/gcc/arm-none-eabi/4.9.3/../../../../arm-none-eabi/lib/armv7e-m/softfp\libg.a(lib_a-vfprintf.o) (__sprint_r)
c:/program files/gnu tools arm embedded/4.9 2015q2/bin/../lib/gcc/arm-none-eabi/4.9.3/../../../../arm-none-eabi/lib/armv7e-m/softfp\libg.a(lib_a-writer.o)
                              c:/program files/gnu tools arm embedded/4.9 2015q2/bin/../lib/gcc/arm-none-eabi/4.9.3/../../../../arm-none-eabi/lib/armv7e-m/softfp\libg.a(lib_a-stdio.o) (_write_r)
c:/program files/gnu tools arm embedded/4.9 2015q2/bin/../lib/gcc/arm-none-eabi/4.9.3/../../../../arm-none-eabi/lib/armv7e-m/softfp\libg.a(lib_a-callocr.o)
                              c:/program files/gnu tools arm embedded/4.9 2015q2/bin/../lib/gcc/arm-none-eabi/4.9.3/../../../../arm-none-eabi/lib/armv7e-m/softfp\libg.a(lib_a-mprec.o) (_calloc_r)
c:/program files/gnu tools arm embedded/4.9 2015q2/bin/../lib/gcc/arm-none-eabi/4.9.3/../../../../arm-none-eabi/lib/armv7e-m/softfp\libg.a(lib_a-closer.o)
                              c:/program files/gnu tools arm embedded/4.9 2015q2/bin/../lib/gcc/arm-none-eabi/4.9.3/../../../../arm-none-eabi/lib/armv7e-m/softfp\libg.a(lib_a-stdio.o) (_close_r)
c:/program files/gnu tools arm embedded/4.9 2015q2/bin/../lib/gcc/arm-none-eabi/4.9.3/../../../../arm-none-eabi/lib/armv7e-m/softfp\libg.a(lib_a-fclose.o)
                              c:/program files/gnu tools arm embedded/4.9 2015q2/bin/../lib/gcc/arm-none-eabi/4.9.3/../../../../arm-none-eabi/lib/armv7e-m/softfp\libg.a(lib_a-findfp.o) (_fclose_r)
c:/program files/gnu tools arm embedded/4.9 2015q2/bin/../lib/gcc/arm-none-eabi/4.9.3/../../../../arm-none-eabi/lib/armv7e-m/softfp\libg.a(lib_a-fputwc.o)
                              c:/program files/gnu tools arm embedded/4.9 2015q2/bin/../lib/gcc/arm-none-eabi/4.9.3/../../../../arm-none-eabi/lib/armv7e-m/softfp\libg.a(lib_a-vfiprintf.o) (_fputwc_r)
c:/program files/gnu tools arm embedded/4.9 2015q2/bin/../lib/gcc/arm-none-eabi/4.9.3/../../../../arm-none-eabi/lib/armv7e-m/softfp\libg.a(lib_a-fstatr.o)
                              c:/program files/gnu tools arm embedded/4.9 2015q2/bin/../lib/gcc/arm-none-eabi/4.9.3/../../../../arm-none-eabi/lib/armv7e-m/softfp\libg.a(lib_a-makebuf.o) (_fstat_r)
c:/program files/gnu tools arm embedded/4.9 2015q2/bin/../lib/gcc/arm-none-eabi/4.9.3/../../../../arm-none-eabi/lib/armv7e-m/softfp\libg.a(lib_a-fvwrite.o)
                              c:/program files/gnu tools arm embedded/4.9 2015q2/bin/../lib/gcc/arm-none-eabi/4.9.3/../../../../arm-none-eabi/lib/armv7e-m/softfp\libg.a(lib_a-vfiprintf.o) (__sfvwrite_r)
c:/program files/gnu tools arm embedded/4.9 2015q2/bin/../lib/gcc/arm-none-eabi/4.9.3/../../../../arm-none-eabi/lib/armv7e-m/softfp\libg.a(lib_a-isattyr.o)
                              c:/program files/gnu tools arm embedded/4.9 2015q2/bin/../lib/gcc/arm-none-eabi/4.9.3/../../../../arm-none-eabi/lib/armv7e-m/softfp\libg.a(lib_a-makebuf.o) (_isatty_r)
c:/program files/gnu tools arm embedded/4.9 2015q2/bin/../lib/gcc/arm-none-eabi/4.9.3/../../../../arm-none-eabi/lib/armv7e-m/softfp\libg.a(lib_a-lseekr.o)
                              c:/program files/gnu tools arm embedded/4.9 2015q2/bin/../lib/gcc/arm-none-eabi/4.9.3/../../../../arm-none-eabi/lib/armv7e-m/softfp\libg.a(lib_a-stdio.o) (_lseek_r)
c:/program files/gnu tools arm embedded/4.9 2015q2/bin/../lib/gcc/arm-none-eabi/4.9.3/../../../../arm-none-eabi/lib/armv7e-m/softfp\libg.a(lib_a-memmove.o)
                              c:/program files/gnu tools arm embedded/4.9 2015q2/bin/../lib/gcc/arm-none-eabi/4.9.3/../../../../arm-none-eabi/lib/armv7e-m/softfp\libg.a(lib_a-svfiprintf.o) (memmove)
c:/program files/gnu tools arm embedded/4.9 2015q2/bin/../lib/gcc/arm-none-eabi/4.9.3/../../../../arm-none-eabi/lib/armv7e-m/softfp\libg.a(lib_a-readr.o)
                              c:/program files/gnu tools arm embedded/4.9 2015q2/bin/../lib/gcc/arm-none-eabi/4.9.3/../../../../arm-none-eabi/lib/armv7e-m/softfp\libg.a(lib_a-stdio.o) (_read_r)
c:/program files/gnu tools arm embedded/4.9 2015q2/bin/../lib/gcc/arm-none-eabi/4.9.3/../../../../arm-none-eabi/lib/armv7e-m/softfp\libg.a(lib_a-reallocr.o)
                              c:/program files/gnu tools arm embedded/4.9 2015q2/bin/../lib/gcc/arm-none-eabi/4.9.3/../../../../arm-none-eabi/lib/armv7e-m/softfp\libg.a(lib_a-svfiprintf.o) (_realloc_r)
c:/program files/gnu tools arm embedded/4.9 2015q2/bin/../lib/gcc/arm-none-eabi/4.9.3/../../../../arm-none-eabi/lib/armv7e-m/softfp\libg.a(lib_a-reent.o)
                              c:/program files/gnu tools arm embedded/4.9 2015q2/bin/../lib/gcc/arm-none-eabi/4.9.3/../../../../arm-none-eabi/lib/armv7e-m/softfp\libg.a(lib_a-sbrkr.o) (errno)
c:/program files/gnu tools arm embedded/4.9 2015q2/bin/../lib/gcc/arm-none-eabi/4.9.3/../../../../arm-none-eabi/lib/armv7e-m/softfp\libg.a(lib_a-wbuf.o)
                              c:/program files/gnu tools arm embedded/4.9 2015q2/bin/../lib/gcc/arm-none-eabi/4.9.3/../../../../arm-none-eabi/lib/armv7e-m/softfp\libg.a(lib_a-fputwc.o) (__swbuf_r)
c:/program files/gnu tools arm embedded/4.9 2015q2/bin/../lib/gcc/arm-none-eabi/4.9.3/../../../../arm-none-eabi/lib/armv7e-m/softfp\libg.a(lib_a-wcrtomb.o)
                              c:/program files/gnu tools arm embedded/4.9 2015q2/bin/../lib/gcc/arm-none-eabi/4.9.3/../../../../arm-none-eabi/lib/armv7e-m/softfp\libg.a(lib_a-fputwc.o) (_wcrtomb_r)
c:/program files/gnu tools arm embedded/4.9 2015q2/bin/../lib/gcc/arm-none-eabi/4.9.3/../../../../arm-none-eabi/lib/armv7e-m/softfp\libg.a(lib_a-wctomb_r.o)
                              c:/program files/gnu tools arm embedded/4.9 2015q2/bin/../lib/gcc/arm-none-eabi/4.9.3/../../../../arm-none-eabi/lib/armv7e-m/softfp\libg.a(lib_a-wcrtomb.o) (__wctomb)
c:/program files/gnu tools arm embedded/4.9 2015q2/bin/../lib/gcc/arm-none-eabi/4.9.3/armv7e-m/softfp\libgcc.a(_arm_addsubdf3.o)
                              c:/program files/gnu tools arm embedded/4.9 2015q2/bin/../lib/gcc/arm-none-eabi/4.9.3/../../../../arm-none-eabi/lib/armv7e-m/softfp\libg.a(lib_a-dtoa.o) (__aeabi_dsub)
c:/program files/gnu tools arm embedded/4.9 2015q2/bin/../lib/gcc/arm-none-eabi/4.9.3/armv7e-m/softfp\libgcc.a(_arm_muldivdf3.o)
                              c:/program files/gnu tools arm embedded/4.9 2015q2/bin/../lib/gcc/arm-none-eabi/4.9.3/../../../../arm-none-eabi/lib/armv7e-m/softfp\libg.a(lib_a-dtoa.o) (__aeabi_dmul)
c:/program files/gnu tools arm embedded/4.9 2015q2/bin/../lib/gcc/arm-none-eabi/4.9.3/armv7e-m/softfp\libgcc.a(_arm_cmpdf2.o)
                              c:/program files/gnu tools arm embedded/4.9 2015q2/bin/../lib/gcc/arm-none-eabi/4.9.3/../../../../arm-none-eabi/lib/armv7e-m/softfp\libg.a(lib_a-svfprintf.o) (__aeabi_dcmpeq)
c:/program files/gnu tools arm embedded/4.9 2015q2/bin/../lib/gcc/arm-none-eabi/4.9.3/armv7e-m/softfp\libgcc.a(_arm_fixdfsi.o)
                              c:/program files/gnu tools arm embedded/4.9 2015q2/bin/../lib/gcc/arm-none-eabi/4.9.3/../../../../arm-none-eabi/lib/armv7e-m/softfp\libg.a(lib_a-dtoa.o) (__aeabi_d2iz)
c:/program files/gnu tools arm embedded/4.9 2015q2/bin/../lib/gcc/arm-none-eabi/4.9.3/armv7e-m/softfp\libgcc.a(_aeabi_uldivmod.o)
                              c:/program files/gnu tools arm embedded/4.9 2015q2/bin/../lib/gcc/arm-none-eabi/4.9.3/../../../../arm-none-eabi/lib/armv7e-m/softfp\libg.a(lib_a-svfprintf.o) (__aeabi_uldivmod)
c:/program files/gnu tools arm embedded/4.9 2015q2/bin/../lib/gcc/arm-none-eabi/4.9.3/armv7e-m/softfp\libgcc.a(bpabi.o)
                              c:/program files/gnu tools arm embedded/4.9 2015q2/bin/../lib/gcc/arm-none-eabi/4.9.3/armv7e-m/softfp\libgcc.a(_aeabi_uldivmod.o) (__gnu_uldivmod_helper)
c:/program files/gnu tools arm embedded/4.9 2015q2/bin/../lib/gcc/arm-none-eabi/4.9.3/armv7e-m/softfp\libgcc.a(_dvmd_tls.o)
                              c:/program files/gnu tools arm embedded/4.9 2015q2/bin/../lib/gcc/arm-none-eabi/4.9.3/armv7e-m/softfp\libgcc.a(_aeabi_uldivmod.o) (__aeabi_ldiv0)
c:/program files/gnu tools arm embedded/4.9 2015q2/bin/../lib/gcc/arm-none-eabi/4.9.3/armv7e-m/softfp\libgcc.a(_divdi3.o)
                              c:/program files/gnu tools arm embedded/4.9 2015q2/bin/../lib/gcc/arm-none-eabi/4.9.3/armv7e-m/softfp\libgcc.a(bpabi.o) (__divdi3)
c:/program files/gnu tools arm embedded/4.9 2015q2/bin/../lib/gcc/arm-none-eabi/4.9.3/armv7e-m/softfp\libgcc.a(_udivdi3.o)
                              c:/program files/gnu tools arm embedded/4.9 2015q2/bin/../lib/gcc/arm-none-eabi/4.9.3/armv7e-m/softfp\libgcc.a(bpabi.o) (__udivdi3)

Allocating common symbols
Common symbol       size              file

current_iphdr_src   0x4               ..\obj\ip.o
pxMBFrameCBTransmitterEmpty
                    0x4               ..\obj\mb.o
netif_list          0x4               ..\obj\netif.o
ADC_last_data       0x10              ..\obj\adc_dcmi.o
RX_Frame_Descriptor
                    0xc               ..\obj\stm32f4x7_eth.o
pxMBPortCBTimerExpired
                    0x4               ..\obj\mb.o
tcp_active_pcbs_changed
                    0x1               ..\obj\tcp.o
tcp_active_pcbs     0x4               ..\obj\tcp.o
udp_pcbs            0x4               ..\obj\udp.o
errno               0x4               c:/program files/gnu tools arm embedded/4.9 2015q2/bin/../lib/gcc/arm-none-eabi/4.9.3/../../../../arm-none-eabi/lib/armv7e-m/softfp\libg.a(lib_a-reent.o)
current_netif       0x4               ..\obj\ip.o
client_pcb          0x4               ..\obj\udp_send.o
tcp_ticks           0x4               ..\obj\tcp.o
tcp_listen_pcbs     0x4               ..\obj\tcp.o
DMARxDescToGet      0x4               ..\obj\stm32f4x7_eth.o
current_iphdr_dest  0x4               ..\obj\ip.o
DestIPaddr          0x4               ..\obj\udp_send.o
ucRTUBuf            0x100             ..\obj\mbrtu.o
DMATxDescToSet      0x4               ..\obj\stm32f4x7_eth.o
tcp_tmp_pcb         0x4               ..\obj\tcp.o
xADC_MB_Queue       0x4               ..\obj\adc_dcmi.o
tcp_input_pcb       0x4               ..\obj\tcp_in.o
pb                  0x4               ..\obj\udp_send.o
UDPPacket           0x409             ..\obj\udp_send.o
DMATxDscrTab        0xa0              ..\obj\stm32f4x7_eth.o
current_header      0x4               ..\obj\ip.o
pxMBFrameCBByteReceived
                    0x4               ..\obj\mb.o
Rx_Buff             0x1dc4            ..\obj\stm32f4x7_eth.o
dhcp_rx_options_given
                    0xa               ..\obj\dhcp.o
tcp_bound_pcbs      0x4               ..\obj\tcp.o
pxMBFrameCBTransmitFSMCur
                    0x4               ..\obj\mb.o
Frame_Rx_index      0x4               ..\obj\stm32f4x7_eth.o
data                0x400             ..\obj\http_server.o
ADC_buf_pnt         0x4               ..\obj\adc_dcmi.o
DCMIAdcRxBuff       0x8000            ..\obj\adc_dcmi.o
DMA_RX_FRAME_infos  0x4               ..\obj\stm32f4x7_eth.o
DMARxDscrTab        0xa0              ..\obj\stm32f4x7_eth.o
pxMBFrameCBReceiveFSMCur
                    0x4               ..\obj\mb.o
tcp_tw_pcbs         0x4               ..\obj\tcp.o
xnetif              0x34              ..\obj\main.o
netif_default       0x4               ..\obj\netif.o
configInfo          0x1c              ..\obj\cfg_info.o
dhcp_rx_options_val
                    0x28              ..\obj\dhcp.o
ram_heap            0x1414            ..\obj\mem.o
Tx_Buff             0x1dc4            ..\obj\stm32f4x7_eth.o

Discarded input sections

 .text          0x00000000        0x0 ..\obj\stm32f4xx_syscfg.o
 .data          0x00000000        0x0 ..\obj\stm32f4xx_syscfg.o
 .bss           0x00000000        0x0 ..\obj\stm32f4xx_syscfg.o
 .text.SYSCFG_DeInit
                0x00000000       0x1c ..\obj\stm32f4xx_syscfg.o
 .text.SYSCFG_MemoryRemapConfig
                0x00000000       0x20 ..\obj\stm32f4xx_syscfg.o
 .text.SYSCFG_EXTILineConfig
                0x00000000       0x84 ..\obj\stm32f4xx_syscfg.o
 .text.SYSCFG_CompensationCellCmd
                0x00000000       0x20 ..\obj\stm32f4xx_syscfg.o
 .text.SYSCFG_GetCompensationCellStatus
                0x00000000       0x34 ..\obj\stm32f4xx_syscfg.o
 .text          0x00000000        0x0 ..\obj\mem.o
 .data          0x00000000        0x0 ..\obj\mem.o
 .text.mem_calloc
                0x00000000       0x44 ..\obj\mem.o
 .text          0x00000000        0x0 ..\obj\stm32f4xx_sdio.o
 .data          0x00000000        0x0 ..\obj\stm32f4xx_sdio.o
 .bss           0x00000000        0x0 ..\obj\stm32f4xx_sdio.o
 .text.SDIO_DeInit
                0x00000000       0x1c ..\obj\stm32f4xx_sdio.o
 .text.SDIO_Init
                0x00000000       0x5c ..\obj\stm32f4xx_sdio.o
 .text.SDIO_StructInit
                0x00000000       0x38 ..\obj\stm32f4xx_sdio.o
 .text.SDIO_ClockCmd
                0x00000000       0x20 ..\obj\stm32f4xx_sdio.o
 .text.SDIO_SetPowerState
                0x00000000       0x1c ..\obj\stm32f4xx_sdio.o
 .text.SDIO_GetPowerState
                0x00000000       0x1c ..\obj\stm32f4xx_sdio.o
 .text.SDIO_SendCommand
                0x00000000       0x58 ..\obj\stm32f4xx_sdio.o
 .text.SDIO_CmdStructInit
                0x00000000       0x30 ..\obj\stm32f4xx_sdio.o
 .text.SDIO_GetCommandResponse
                0x00000000       0x18 ..\obj\stm32f4xx_sdio.o
 .text.SDIO_GetResponse
                0x00000000       0x28 ..\obj\stm32f4xx_sdio.o
 .text.SDIO_DataConfig
                0x00000000       0x5c ..\obj\stm32f4xx_sdio.o
 .text.SDIO_DataStructInit
                0x00000000       0x38 ..\obj\stm32f4xx_sdio.o
 .text.SDIO_GetDataCounter
                0x00000000       0x18 ..\obj\stm32f4xx_sdio.o
 .text.SDIO_ReadData
                0x00000000       0x18 ..\obj\stm32f4xx_sdio.o
 .text.SDIO_WriteData
                0x00000000       0x20 ..\obj\stm32f4xx_sdio.o
 .text.SDIO_GetFIFOCount
                0x00000000       0x18 ..\obj\stm32f4xx_sdio.o
 .text.SDIO_StartSDIOReadWait
                0x00000000       0x20 ..\obj\stm32f4xx_sdio.o
 .text.SDIO_StopSDIOReadWait
                0x00000000       0x20 ..\obj\stm32f4xx_sdio.o
 .text.SDIO_SetSDIOReadWaitMode
                0x00000000       0x1c ..\obj\stm32f4xx_sdio.o
 .text.SDIO_SetSDIOOperation
                0x00000000       0x20 ..\obj\stm32f4xx_sdio.o
 .text.SDIO_SendSDIOSuspendCmd
                0x00000000       0x20 ..\obj\stm32f4xx_sdio.o
 .text.SDIO_CommandCompletionCmd
                0x00000000       0x20 ..\obj\stm32f4xx_sdio.o
 .text.SDIO_CEATAITCmd
                0x00000000       0x2c ..\obj\stm32f4xx_sdio.o
 .text.SDIO_SendCEATACmd
                0x00000000       0x20 ..\obj\stm32f4xx_sdio.o
 .text.SDIO_DMACmd
                0x00000000       0x20 ..\obj\stm32f4xx_sdio.o
 .text.SDIO_ITConfig
                0x00000000       0x3c ..\obj\stm32f4xx_sdio.o
 .text.SDIO_GetFlagStatus
                0x00000000       0x34 ..\obj\stm32f4xx_sdio.o
 .text.SDIO_ClearFlag
                0x00000000       0x1c ..\obj\stm32f4xx_sdio.o
 .text.SDIO_GetITStatus
                0x00000000       0x34 ..\obj\stm32f4xx_sdio.o
 .text.SDIO_ClearITPendingBit
                0x00000000       0x1c ..\obj\stm32f4xx_sdio.o
 .debug_info    0x00000000      0x7f5 ..\obj\stm32f4xx_sdio.o
 .debug_abbrev  0x00000000      0x177 ..\obj\stm32f4xx_sdio.o
 .debug_aranges
                0x00000000      0x108 ..\obj\stm32f4xx_sdio.o
 .debug_ranges  0x00000000       0xf8 ..\obj\stm32f4xx_sdio.o
 .debug_line    0x00000000      0x47c ..\obj\stm32f4xx_sdio.o
 .debug_str     0x00000000      0x67a ..\obj\stm32f4xx_sdio.o
 .comment       0x00000000       0x71 ..\obj\stm32f4xx_sdio.o
 .debug_frame   0x00000000      0x48c ..\obj\stm32f4xx_sdio.o
 .ARM.attributes
                0x00000000       0x37 ..\obj\stm32f4xx_sdio.o
 .text          0x00000000        0x0 ..\obj\mb.o
 .text.eMBInit  0x00000000       0x74 ..\obj\mb.o
 .text.eMBRegisterCB
                0x00000000       0xcc ..\obj\mb.o
 .text.eMBClose
                0x00000000       0x38 ..\obj\mb.o
 .text.eMBDisable
                0x00000000       0x44 ..\obj\mb.o
 COMMON         0x00000000       0x14 ..\obj\mb.o
 .text          0x00000000        0x0 ..\obj\mbfuncdisc.o
 .data          0x00000000        0x0 ..\obj\mbfuncdisc.o
 .bss           0x00000000        0x0 ..\obj\mbfuncdisc.o
 .text          0x00000000        0x0 ..\obj\tcp.o
 .text.tcp_shutdown
                0x00000000       0x8c ..\obj\tcp.o
 .text.tcp_connect
                0x00000000      0x1b8 ..\obj\tcp.o
 .text.tcp_setprio
                0x00000000       0x1c ..\obj\tcp.o
 .text.tcp_sent
                0x00000000       0x1c ..\obj\tcp.o
 .text.tcp_poll
                0x00000000       0x28 ..\obj\tcp.o
 .text.tcp_debug_state_str
                0x00000000       0x24 ..\obj\tcp.o
 .text          0x00000000        0x0 ..\obj\err.o
 .data          0x00000000        0x0 ..\obj\err.o
 .bss           0x00000000        0x0 ..\obj\err.o
 .debug_info    0x00000000       0x4b ..\obj\err.o
 .debug_abbrev  0x00000000       0x24 ..\obj\err.o
 .debug_aranges
                0x00000000       0x18 ..\obj\err.o
 .debug_line    0x00000000       0x1d ..\obj\err.o
 .debug_str     0x00000000      0x143 ..\obj\err.o
 .comment       0x00000000       0x71 ..\obj\err.o
 .ARM.attributes
                0x00000000       0x37 ..\obj\err.o
 .text          0x00000000        0x0 ..\obj\portevent.o
 .data          0x00000000        0x0 ..\obj\portevent.o
 .text.vMBPortEventClose
                0x00000000       0x24 ..\obj\portevent.o
 .text          0x00000000        0x0 ..\obj\porttcp.o
 .data          0x00000000        0x0 ..\obj\porttcp.o
 .text.vMBTCPPortClose
                0x00000000       0x28 ..\obj\porttcp.o
 .text          0x00000000        0x0 ..\obj\randm.o
 .data          0x00000000        0x0 ..\obj\randm.o
 .bss           0x00000000        0x0 ..\obj\randm.o
 .debug_info    0x00000000       0x4b ..\obj\randm.o
 .debug_abbrev  0x00000000       0x24 ..\obj\randm.o
 .debug_aranges
                0x00000000       0x18 ..\obj\randm.o
 .debug_line    0x00000000       0x1d ..\obj\randm.o
 .debug_str     0x00000000      0x14b ..\obj\randm.o
 .comment       0x00000000       0x71 ..\obj\randm.o
 .ARM.attributes
                0x00000000       0x37 ..\obj\randm.o
 .text          0x00000000        0x0 ..\obj\mib_structs.o
 .data          0x00000000        0x0 ..\obj\mib_structs.o
 .bss           0x00000000        0x0 ..\obj\mib_structs.o
 .debug_info    0x00000000       0x4b ..\obj\mib_structs.o
 .debug_abbrev  0x00000000       0x24 ..\obj\mib_structs.o
 .debug_aranges
                0x00000000       0x18 ..\obj\mib_structs.o
 .debug_line    0x00000000       0x1d ..\obj\mib_structs.o
 .debug_str     0x00000000      0x151 ..\obj\mib_structs.o
 .comment       0x00000000       0x71 ..\obj\mib_structs.o
 .ARM.attributes
                0x00000000       0x37 ..\obj\mib_structs.o
 .text          0x00000000        0x0 ..\obj\mbfuncother.o
 .data          0x00000000        0x0 ..\obj\mbfuncother.o
 .text          0x00000000        0x0 ..\obj\tcp_in.o
 .data          0x00000000        0x0 ..\obj\tcp_in.o
 .text          0x00000000        0x0 ..\obj\stm32f4xx_usart.o
 .data          0x00000000        0x0 ..\obj\stm32f4xx_usart.o
 .bss           0x00000000        0x0 ..\obj\stm32f4xx_usart.o
 .text.USART_DeInit
                0x00000000       0xd0 ..\obj\stm32f4xx_usart.o
 .text.USART_Init
                0x00000000      0x178 ..\obj\stm32f4xx_usart.o
 .text.USART_StructInit
                0x00000000       0x38 ..\obj\stm32f4xx_usart.o
 .text.USART_ClockInit
                0x00000000       0x54 ..\obj\stm32f4xx_usart.o
 .text.USART_ClockStructInit
                0x00000000       0x2c ..\obj\stm32f4xx_usart.o
 .text.USART_Cmd
                0x00000000       0x40 ..\obj\stm32f4xx_usart.o
 .text.USART_SetPrescaler
                0x00000000       0x38 ..\obj\stm32f4xx_usart.o
 .text.USART_OverSampling8Cmd
                0x00000000       0x44 ..\obj\stm32f4xx_usart.o
 .text.USART_OneBitMethodCmd
                0x00000000       0x40 ..\obj\stm32f4xx_usart.o
 .text.USART_SendData
                0x00000000       0x24 ..\obj\stm32f4xx_usart.o
 .text.USART_ReceiveData
                0x00000000       0x20 ..\obj\stm32f4xx_usart.o
 .text.USART_SetAddress
                0x00000000       0x38 ..\obj\stm32f4xx_usart.o
 .text.USART_ReceiverWakeUpCmd
                0x00000000       0x40 ..\obj\stm32f4xx_usart.o
 .text.USART_WakeUpConfig
                0x00000000       0x38 ..\obj\stm32f4xx_usart.o
 .text.USART_LINBreakDetectLengthConfig
                0x00000000       0x38 ..\obj\stm32f4xx_usart.o
 .text.USART_LINCmd
                0x00000000       0x40 ..\obj\stm32f4xx_usart.o
 .text.USART_SendBreak
                0x00000000       0x24 ..\obj\stm32f4xx_usart.o
 .text.USART_HalfDuplexCmd
                0x00000000       0x40 ..\obj\stm32f4xx_usart.o
 .text.USART_SetGuardTime
                0x00000000       0x3c ..\obj\stm32f4xx_usart.o
 .text.USART_SmartCardCmd
                0x00000000       0x40 ..\obj\stm32f4xx_usart.o
 .text.USART_SmartCardNACKCmd
                0x00000000       0x40 ..\obj\stm32f4xx_usart.o
 .text.USART_IrDAConfig
                0x00000000       0x38 ..\obj\stm32f4xx_usart.o
 .text.USART_IrDACmd
                0x00000000       0x40 ..\obj\stm32f4xx_usart.o
 .text.USART_DMACmd
                0x00000000       0x48 ..\obj\stm32f4xx_usart.o
 .text.USART_ITConfig
                0x00000000       0x90 ..\obj\stm32f4xx_usart.o
 .text.USART_GetFlagStatus
                0x00000000       0x38 ..\obj\stm32f4xx_usart.o
 .text.USART_ClearFlag
                0x00000000       0x20 ..\obj\stm32f4xx_usart.o
 .text.USART_GetITStatus
                0x00000000       0xb8 ..\obj\stm32f4xx_usart.o
 .text.USART_ClearITPendingBit
                0x00000000       0x38 ..\obj\stm32f4xx_usart.o
 .debug_info    0x00000000      0x9c2 ..\obj\stm32f4xx_usart.o
 .debug_abbrev  0x00000000      0x155 ..\obj\stm32f4xx_usart.o
 .debug_aranges
                0x00000000      0x100 ..\obj\stm32f4xx_usart.o
 .debug_ranges  0x00000000       0xf0 ..\obj\stm32f4xx_usart.o
 .debug_line    0x00000000      0x4da ..\obj\stm32f4xx_usart.o
 .debug_str     0x00000000      0x6c9 ..\obj\stm32f4xx_usart.o
 .comment       0x00000000       0x71 ..\obj\stm32f4xx_usart.o
 .debug_frame   0x00000000      0x490 ..\obj\stm32f4xx_usart.o
 .ARM.attributes
                0x00000000       0x37 ..\obj\stm32f4xx_usart.o
 .text          0x00000000        0x0 ..\obj\stm32f4xx_pwr.o
 .data          0x00000000        0x0 ..\obj\stm32f4xx_pwr.o
 .bss           0x00000000        0x0 ..\obj\stm32f4xx_pwr.o
 .text.PWR_DeInit
                0x00000000       0x1c ..\obj\stm32f4xx_pwr.o
 .text.PWR_BackupAccessCmd
                0x00000000       0x20 ..\obj\stm32f4xx_pwr.o
 .text.PWR_PVDLevelConfig
                0x00000000       0x38 ..\obj\stm32f4xx_pwr.o
 .text.PWR_PVDCmd
                0x00000000       0x20 ..\obj\stm32f4xx_pwr.o
 .text.PWR_WakeUpPinCmd
                0x00000000       0x20 ..\obj\stm32f4xx_pwr.o
 .text.PWR_BackupRegulatorCmd
                0x00000000       0x20 ..\obj\stm32f4xx_pwr.o
 .text.PWR_MainRegulatorModeConfig
                0x00000000       0x38 ..\obj\stm32f4xx_pwr.o
 .text.PWR_FlashPowerDownCmd
                0x00000000       0x20 ..\obj\stm32f4xx_pwr.o
 .text.PWR_EnterSTOPMode
                0x00000000       0x64 ..\obj\stm32f4xx_pwr.o
 .text.PWR_EnterSTANDBYMode
                0x00000000       0x3c ..\obj\stm32f4xx_pwr.o
 .text.PWR_GetFlagStatus
                0x00000000       0x34 ..\obj\stm32f4xx_pwr.o
 .text.PWR_ClearFlag
                0x00000000       0x24 ..\obj\stm32f4xx_pwr.o
 .debug_info    0x00000000      0x4fc ..\obj\stm32f4xx_pwr.o
 .debug_abbrev  0x00000000      0x17f ..\obj\stm32f4xx_pwr.o
 .debug_aranges
                0x00000000       0x78 ..\obj\stm32f4xx_pwr.o
 .debug_ranges  0x00000000       0x68 ..\obj\stm32f4xx_pwr.o
 .debug_line    0x00000000      0x2e1 ..\obj\stm32f4xx_pwr.o
 .debug_str     0x00000000      0x3cb ..\obj\stm32f4xx_pwr.o
 .comment       0x00000000       0x71 ..\obj\stm32f4xx_pwr.o
 .debug_frame   0x00000000      0x1dc ..\obj\stm32f4xx_pwr.o
 .ARM.attributes
                0x00000000       0x37 ..\obj\stm32f4xx_pwr.o
 .text          0x00000000        0x0 ..\obj\slipif.o
 .data          0x00000000        0x0 ..\obj\slipif.o
 .bss           0x00000000        0x0 ..\obj\slipif.o
 .debug_info    0x00000000       0x59 ..\obj\slipif.o
 .debug_abbrev  0x00000000       0x24 ..\obj\slipif.o
 .debug_aranges
                0x00000000       0x18 ..\obj\slipif.o
 .debug_line    0x00000000       0x1d ..\obj\slipif.o
 .debug_str     0x00000000      0x156 ..\obj\slipif.o
 .comment       0x00000000       0x71 ..\obj\slipif.o
 .ARM.attributes
                0x00000000       0x37 ..\obj\slipif.o
 .text          0x00000000        0x0 ..\obj\memp.o
 .data          0x00000000        0x0 ..\obj\memp.o
 .text          0x00000000        0x0 ..\obj\autoip.o
 .data          0x00000000        0x0 ..\obj\autoip.o
 .bss           0x00000000        0x0 ..\obj\autoip.o
 .debug_info    0x00000000       0x4b ..\obj\autoip.o
 .debug_abbrev  0x00000000       0x24 ..\obj\autoip.o
 .debug_aranges
                0x00000000       0x18 ..\obj\autoip.o
 .debug_line    0x00000000       0x1d ..\obj\autoip.o
 .debug_str     0x00000000      0x14c ..\obj\autoip.o
 .comment       0x00000000       0x71 ..\obj\autoip.o
 .ARM.attributes
                0x00000000       0x37 ..\obj\autoip.o
 .text          0x00000000        0x0 ..\obj\ip_frag.o
 .data          0x00000000        0x0 ..\obj\ip_frag.o
 .bss           0x00000000        0x0 ..\obj\ip_frag.o
 .debug_info    0x00000000       0x6e ..\obj\ip_frag.o
 .debug_abbrev  0x00000000       0x24 ..\obj\ip_frag.o
 .debug_aranges
                0x00000000       0x18 ..\obj\ip_frag.o
 .debug_line    0x00000000       0x1d ..\obj\ip_frag.o
 .debug_str     0x00000000      0x18d ..\obj\ip_frag.o
 .comment       0x00000000       0x71 ..\obj\ip_frag.o
 .ARM.attributes
                0x00000000       0x37 ..\obj\ip_frag.o
 .text          0x00000000        0x0 ..\obj\msg_out.o
 .data          0x00000000        0x0 ..\obj\msg_out.o
 .bss           0x00000000        0x0 ..\obj\msg_out.o
 .debug_info    0x00000000       0x4b ..\obj\msg_out.o
 .debug_abbrev  0x00000000       0x24 ..\obj\msg_out.o
 .debug_aranges
                0x00000000       0x18 ..\obj\msg_out.o
 .debug_line    0x00000000       0x1d ..\obj\msg_out.o
 .debug_str     0x00000000      0x14d ..\obj\msg_out.o
 .comment       0x00000000       0x71 ..\obj\msg_out.o
 .ARM.attributes
                0x00000000       0x37 ..\obj\msg_out.o
 .text          0x00000000        0x0 ..\obj\netbuf.o
 .data          0x00000000        0x0 ..\obj\netbuf.o
 .bss           0x00000000        0x0 ..\obj\netbuf.o
 .text.netbuf_new
                0x00000000       0x3c ..\obj\netbuf.o
 .text.netbuf_delete
                0x00000000       0x3c ..\obj\netbuf.o
 .text.netbuf_alloc
                0x00000000       0x5c ..\obj\netbuf.o
 .text.netbuf_free
                0x00000000       0x38 ..\obj\netbuf.o
 .text.netbuf_ref
                0x00000000       0x78 ..\obj\netbuf.o
 .text.netbuf_chain
                0x00000000       0x40 ..\obj\netbuf.o
 .text.netbuf_data
                0x00000000       0x5c ..\obj\netbuf.o
 .text.netbuf_next
                0x00000000       0x48 ..\obj\netbuf.o
 .text.netbuf_first
                0x00000000       0x24 ..\obj\netbuf.o
 .debug_info    0x00000000      0x3cf ..\obj\netbuf.o
 .debug_abbrev  0x00000000      0x124 ..\obj\netbuf.o
 .debug_aranges
                0x00000000       0x60 ..\obj\netbuf.o
 .debug_ranges  0x00000000       0x50 ..\obj\netbuf.o
 .debug_line    0x00000000      0x291 ..\obj\netbuf.o
 .debug_str     0x00000000      0x37b ..\obj\netbuf.o
 .comment       0x00000000       0x71 ..\obj\netbuf.o
 .debug_frame   0x00000000      0x160 ..\obj\netbuf.o
 .ARM.attributes
                0x00000000       0x37 ..\obj\netbuf.o
 .text          0x00000000        0x0 ..\obj\tcpip.o
 .data          0x00000000        0x0 ..\obj\tcpip.o
 .text.tcpip_callback_with_block
                0x00000000       0x78 ..\obj\tcpip.o
 .text.tcpip_timeout
                0x00000000       0x5c ..\obj\tcpip.o
 .text.tcpip_untimeout
                0x00000000       0x54 ..\obj\tcpip.o
 .text.tcpip_apimsg
                0x00000000       0x48 ..\obj\tcpip.o
 .text.tcpip_callbackmsg_new
                0x00000000       0x38 ..\obj\tcpip.o
 .text.tcpip_callbackmsg_delete
                0x00000000       0x18 ..\obj\tcpip.o
 .text.tcpip_trycallback
                0x00000000       0x2c ..\obj\tcpip.o
 .text.pbuf_free_int
                0x00000000       0x18 ..\obj\tcpip.o
 .text.pbuf_free_callback
                0x00000000       0x20 ..\obj\tcpip.o
 .text.mem_free_callback
                0x00000000       0x20 ..\obj\tcpip.o
 .text          0x00000000        0x0 ..\obj\mbutils.o
 .data          0x00000000        0x0 ..\obj\mbutils.o
 .bss           0x00000000        0x0 ..\obj\mbutils.o
 .text.xMBUtilSetBits
                0x00000000       0xb4 ..\obj\mbutils.o
 .text.xMBUtilGetBits
                0x00000000       0x74 ..\obj\mbutils.o
 .text          0x00000000        0x0 ..\obj\stm32f4xx_dac.o
 .data          0x00000000        0x0 ..\obj\stm32f4xx_dac.o
 .bss           0x00000000        0x0 ..\obj\stm32f4xx_dac.o
 .text.DAC_DeInit
                0x00000000       0x1c ..\obj\stm32f4xx_dac.o
 .text.DAC_Init
                0x00000000       0x64 ..\obj\stm32f4xx_dac.o
 .text.DAC_StructInit
                0x00000000       0x2c ..\obj\stm32f4xx_dac.o
 .text.DAC_Cmd  0x00000000       0x48 ..\obj\stm32f4xx_dac.o
 .text.DAC_SoftwareTriggerCmd
                0x00000000       0x4c ..\obj\stm32f4xx_dac.o
 .text.DAC_DualSoftwareTriggerCmd
                0x00000000       0x38 ..\obj\stm32f4xx_dac.o
 .text.DAC_WaveGenerationCmd
                0x00000000       0x4c ..\obj\stm32f4xx_dac.o
 .text.DAC_SetChannel1Data
                0x00000000       0x34 ..\obj\stm32f4xx_dac.o
 .text.DAC_SetChannel2Data
                0x00000000       0x34 ..\obj\stm32f4xx_dac.o
 .text.DAC_SetDualChannelData
                0x00000000       0x58 ..\obj\stm32f4xx_dac.o
 .text.DAC_GetDataOutputValue
                0x00000000       0x34 ..\obj\stm32f4xx_dac.o
 .text.DAC_DMACmd
                0x00000000       0x4c ..\obj\stm32f4xx_dac.o
 .text.DAC_ITConfig
                0x00000000       0x4c ..\obj\stm32f4xx_dac.o
 .text.DAC_GetFlagStatus
                0x00000000       0x3c ..\obj\stm32f4xx_dac.o
 .text.DAC_ClearFlag
                0x00000000       0x24 ..\obj\stm32f4xx_dac.o
 .text.DAC_GetITStatus
                0x00000000       0x58 ..\obj\stm32f4xx_dac.o
 .text.DAC_ClearITPendingBit
                0x00000000       0x24 ..\obj\stm32f4xx_dac.o
 .debug_info    0x00000000      0x63a ..\obj\stm32f4xx_dac.o
 .debug_abbrev  0x00000000      0x17c ..\obj\stm32f4xx_dac.o
 .debug_aranges
                0x00000000       0xa0 ..\obj\stm32f4xx_dac.o
 .debug_ranges  0x00000000       0x90 ..\obj\stm32f4xx_dac.o
 .debug_line    0x00000000      0x390 ..\obj\stm32f4xx_dac.o
 .debug_str     0x00000000      0x48d ..\obj\stm32f4xx_dac.o
 .comment       0x00000000       0x71 ..\obj\stm32f4xx_dac.o
 .debug_frame   0x00000000      0x2ac ..\obj\stm32f4xx_dac.o
 .ARM.attributes
                0x00000000       0x37 ..\obj\stm32f4xx_dac.o
 .text          0x00000000        0x0 ..\obj\asn1_dec.o
 .data          0x00000000        0x0 ..\obj\asn1_dec.o
 .bss           0x00000000        0x0 ..\obj\asn1_dec.o
 .debug_info    0x00000000       0x4b ..\obj\asn1_dec.o
 .debug_abbrev  0x00000000       0x24 ..\obj\asn1_dec.o
 .debug_aranges
                0x00000000       0x18 ..\obj\asn1_dec.o
 .debug_line    0x00000000       0x1d ..\obj\asn1_dec.o
 .debug_str     0x00000000      0x14e ..\obj\asn1_dec.o
 .comment       0x00000000       0x71 ..\obj\asn1_dec.o
 .ARM.attributes
                0x00000000       0x37 ..\obj\asn1_dec.o
 .text          0x00000000        0x0 ..\obj\lcp.o
 .data          0x00000000        0x0 ..\obj\lcp.o
 .bss           0x00000000        0x0 ..\obj\lcp.o
 .debug_info    0x00000000       0x4b ..\obj\lcp.o
 .debug_abbrev  0x00000000       0x24 ..\obj\lcp.o
 .debug_aranges
                0x00000000       0x18 ..\obj\lcp.o
 .debug_line    0x00000000       0x1d ..\obj\lcp.o
 .debug_str     0x00000000      0x149 ..\obj\lcp.o
 .comment       0x00000000       0x71 ..\obj\lcp.o
 .ARM.attributes
                0x00000000       0x37 ..\obj\lcp.o
 .text          0x00000000        0x0 ..\obj\vj.o
 .data          0x00000000        0x0 ..\obj\vj.o
 .bss           0x00000000        0x0 ..\obj\vj.o
 .debug_info    0x00000000       0x4b ..\obj\vj.o
 .debug_abbrev  0x00000000       0x24 ..\obj\vj.o
 .debug_aranges
                0x00000000       0x18 ..\obj\vj.o
 .debug_line    0x00000000       0x1d ..\obj\vj.o
 .debug_str     0x00000000      0x148 ..\obj\vj.o
 .comment       0x00000000       0x71 ..\obj\vj.o
 .ARM.attributes
                0x00000000       0x37 ..\obj\vj.o
 .text          0x00000000        0x0 ..\obj\startup_stm32f4xx.o
 .data          0x00000000        0x0 ..\obj\startup_stm32f4xx.o
 .bss           0x00000000        0x0 ..\obj\startup_stm32f4xx.o
 .text          0x00000000        0x0 ..\obj\stm32f4x7_eth.o
 .data          0x00000000        0x0 ..\obj\stm32f4x7_eth.o
 .bss           0x00000000        0x0 ..\obj\stm32f4x7_eth.o
 .text.ETH_GetFlowControlBusyStatus
                0x00000000       0x34 ..\obj\stm32f4x7_eth.o
 .text.ETH_InitiatePauseControlFrame
                0x00000000       0x1c ..\obj\stm32f4x7_eth.o
 .text.ETH_BackPressureActivationCmd
                0x00000000       0x38 ..\obj\stm32f4x7_eth.o
 .text.ETH_GetMACFlagStatus
                0x00000000       0x34 ..\obj\stm32f4x7_eth.o
 .text.ETH_GetMACITStatus
                0x00000000       0x34 ..\obj\stm32f4x7_eth.o
 .text.ETH_MACITConfig
                0x00000000       0x3c ..\obj\stm32f4x7_eth.o
 .text.ETH_GetMACAddress
                0x00000000       0x74 ..\obj\stm32f4x7_eth.o
 .text.ETH_MACAddressPerfectFilterCmd
                0x00000000       0x50 ..\obj\stm32f4x7_eth.o
 .text.ETH_MACAddressFilterConfig
                0x00000000       0x4c ..\obj\stm32f4x7_eth.o
 .text.ETH_MACAddressMaskBytesFilterConfig
                0x00000000       0x44 ..\obj\stm32f4x7_eth.o
 .text.ETH_Get_Received_Frame
                0x00000000       0x84 ..\obj\stm32f4x7_eth.o
 .text.ETH_CheckFrameReceived
                0x00000000       0xd4 ..\obj\stm32f4x7_eth.o
 .text.ETH_GetDMATxDescFlagStatus
                0x00000000       0x34 ..\obj\stm32f4x7_eth.o
 .text.ETH_GetDMATxDescCollisionCount
                0x00000000       0x20 ..\obj\stm32f4x7_eth.o
 .text.ETH_SetDMATxDescOwnBit
                0x00000000       0x20 ..\obj\stm32f4x7_eth.o
 .text.ETH_DMATxDescTransmitITConfig
                0x00000000       0x38 ..\obj\stm32f4x7_eth.o
 .text.ETH_DMATxDescFrameSegmentConfig
                0x00000000       0x20 ..\obj\stm32f4x7_eth.o
 .text.ETH_DMATxDescCRCCmd
                0x00000000       0x38 ..\obj\stm32f4x7_eth.o
 .text.ETH_DMATxDescSecondAddressChainedCmd
                0x00000000       0x38 ..\obj\stm32f4x7_eth.o
 .text.ETH_DMATxDescShortFramePaddingCmd
                0x00000000       0x38 ..\obj\stm32f4x7_eth.o
 .text.ETH_DMATxDescBufferSizeConfig
                0x00000000       0x28 ..\obj\stm32f4x7_eth.o
 .text.ETH_GetDMARxDescFlagStatus
                0x00000000       0x34 ..\obj\stm32f4x7_eth.o
 .text.ETH_GetDMAPTPRxDescExtendedFlagStatus
                0x00000000       0x34 ..\obj\stm32f4x7_eth.o
 .text.ETH_SetDMARxDescOwnBit
                0x00000000       0x20 ..\obj\stm32f4x7_eth.o
 .text.ETH_GetDMARxDescFrameLength
                0x00000000       0x24 ..\obj\stm32f4x7_eth.o
 .text.ETH_GetDMARxDescBufferSize
                0x00000000       0x34 ..\obj\stm32f4x7_eth.o
 .text.ETH_GetRxPktSize
                0x00000000       0x40 ..\obj\stm32f4x7_eth.o
 .text.ETH_EnhancedDescriptorCmd
                0x00000000       0x48 ..\obj\stm32f4x7_eth.o
 .text.ETH_DMAClearFlag
                0x00000000       0x24 ..\obj\stm32f4x7_eth.o
 .text.ETH_GetDMAITStatus
                0x00000000       0x3c ..\obj\stm32f4x7_eth.o
 .text.ETH_GetTransmitProcessState
                0x00000000       0x20 ..\obj\stm32f4x7_eth.o
 .text.ETH_GetReceiveProcessState
                0x00000000       0x20 ..\obj\stm32f4x7_eth.o
 .text.ETH_GetFlushTransmitFIFOStatus
                0x00000000       0x38 ..\obj\stm32f4x7_eth.o
 .text.ETH_GetDMAOverflowStatus
                0x00000000       0x38 ..\obj\stm32f4x7_eth.o
 .text.ETH_GetRxOverflowMissedFrameCounter
                0x00000000       0x24 ..\obj\stm32f4x7_eth.o
 .text.ETH_GetBufferUnavailableMissedFrameCounter
                0x00000000       0x1c ..\obj\stm32f4x7_eth.o
 .text.ETH_GetCurrentTxDescStartAddress
                0x00000000       0x1c ..\obj\stm32f4x7_eth.o
 .text.ETH_GetCurrentRxDescStartAddress
                0x00000000       0x1c ..\obj\stm32f4x7_eth.o
 .text.ETH_GetCurrentTxBufferAddress
                0x00000000       0x1c ..\obj\stm32f4x7_eth.o
 .text.ETH_GetCurrentRxBufferAddress
                0x00000000       0x1c ..\obj\stm32f4x7_eth.o
 .text.ETH_ResumeDMATransmission
                0x00000000       0x1c ..\obj\stm32f4x7_eth.o
 .text.ETH_ResumeDMAReception
                0x00000000       0x1c ..\obj\stm32f4x7_eth.o
 .text.ETH_SetReceiveWatchdogTimer
                0x00000000       0x24 ..\obj\stm32f4x7_eth.o
 .text.ETH_PHYLoopBackCmd
                0x00000000       0x5c ..\obj\stm32f4x7_eth.o
 .text.ETH_ResetWakeUpFrameFilterRegisterPointer
                0x00000000       0x1c ..\obj\stm32f4x7_eth.o
 .text.ETH_SetWakeUpFrameFilterRegister
                0x00000000       0x3c ..\obj\stm32f4x7_eth.o
 .text.ETH_GlobalUnicastWakeUpCmd
                0x00000000       0x38 ..\obj\stm32f4x7_eth.o
 .text.ETH_GetPMTFlagStatus
                0x00000000       0x34 ..\obj\stm32f4x7_eth.o
 .text.ETH_WakeUpFrameDetectionCmd
                0x00000000       0x38 ..\obj\stm32f4x7_eth.o
 .text.ETH_MagicPacketDetectionCmd
                0x00000000       0x38 ..\obj\stm32f4x7_eth.o
 .text.ETH_PowerDownCmd
                0x00000000       0x38 ..\obj\stm32f4x7_eth.o
 .text.ETH_MMCCounterFullPreset
                0x00000000       0x20 ..\obj\stm32f4x7_eth.o
 .text.ETH_MMCCounterHalfPreset
                0x00000000       0x30 ..\obj\stm32f4x7_eth.o
 .text.ETH_MMCCounterFreezeCmd
                0x00000000       0x40 ..\obj\stm32f4x7_eth.o
 .text.ETH_MMCResetOnReadCmd
                0x00000000       0x40 ..\obj\stm32f4x7_eth.o
 .text.ETH_MMCCounterRolloverCmd
                0x00000000       0x40 ..\obj\stm32f4x7_eth.o
 .text.ETH_MMCCountersReset
                0x00000000       0x20 ..\obj\stm32f4x7_eth.o
 .text.ETH_MMCITConfig
                0x00000000       0x84 ..\obj\stm32f4x7_eth.o
 .text.ETH_GetMMCITStatus
                0x00000000       0x78 ..\obj\stm32f4x7_eth.o
 .text.ETH_GetMMCRegister
                0x00000000       0x20 ..\obj\stm32f4x7_eth.o
 .text          0x00000000        0x0 ..\obj\sys.o
 .data          0x00000000        0x0 ..\obj\sys.o
 .bss           0x00000000        0x0 ..\obj\sys.o
 .text.sys_msleep
                0x00000000       0x44 ..\obj\sys.o
 .debug_info    0x00000000       0xff ..\obj\sys.o
 .debug_abbrev  0x00000000       0x8a ..\obj\sys.o
 .debug_aranges
                0x00000000       0x20 ..\obj\sys.o
 .debug_ranges  0x00000000       0x10 ..\obj\sys.o
 .debug_line    0x00000000      0x18d ..\obj\sys.o
 .debug_str     0x00000000      0x1d3 ..\obj\sys.o
 .comment       0x00000000       0x71 ..\obj\sys.o
 .debug_frame   0x00000000       0x34 ..\obj\sys.o
 .ARM.attributes
                0x00000000       0x37 ..\obj\sys.o
 .text          0x00000000        0x0 ..\obj\ip_addr.o
 .data          0x00000000        0x0 ..\obj\ip_addr.o
 .bss           0x00000000       0x10 ..\obj\ip_addr.o
 .text.ip4_addr_netmask_valid
                0x00000000       0x58 ..\obj\ip_addr.o
 .text.ipaddr_addr
                0x00000000       0x2c ..\obj\ip_addr.o
 .text.ipaddr_aton
                0x00000000      0x238 ..\obj\ip_addr.o
 .text.ipaddr_ntoa
                0x00000000       0x20 ..\obj\ip_addr.o
 .text.ipaddr_ntoa_r
                0x00000000      0x104 ..\obj\ip_addr.o
 .text          0x00000000        0x0 ..\obj\mbfuncholding.o
 .data          0x00000000        0x0 ..\obj\mbfuncholding.o
 .bss           0x00000000        0x0 ..\obj\mbfuncholding.o
 .text          0x00000000        0x0 ..\obj\inet_chksum.o
 .data          0x00000000        0x0 ..\obj\inet_chksum.o
 .bss           0x00000000        0x0 ..\obj\inet_chksum.o
 .text.inet_chksum_pseudo
                0x00000000      0x110 ..\obj\inet_chksum.o
 .text.inet_chksum_pseudo_partial
                0x00000000      0x130 ..\obj\inet_chksum.o
 .text          0x00000000        0x0 ..\obj\main.o
 .data          0x00000000        0x0 ..\obj\main.o
 .bss           0x00000000        0x0 ..\obj\main.o
 .text          0x00000000        0x0 ..\obj\mbcrc.o
 .data          0x00000000        0x0 ..\obj\mbcrc.o
 .bss           0x00000000        0x0 ..\obj\mbcrc.o
 .rodata        0x00000000      0x200 ..\obj\mbcrc.o
 .text.usMBCRC16
                0x00000000       0x6c ..\obj\mbcrc.o
 .debug_info    0x00000000      0x12e ..\obj\mbcrc.o
 .debug_abbrev  0x00000000       0x91 ..\obj\mbcrc.o
 .debug_aranges
                0x00000000       0x20 ..\obj\mbcrc.o
 .debug_ranges  0x00000000       0x10 ..\obj\mbcrc.o
 .debug_line    0x00000000       0xca ..\obj\mbcrc.o
 .debug_str     0x00000000      0x1d2 ..\obj\mbcrc.o
 .comment       0x00000000       0x71 ..\obj\mbcrc.o
 .debug_frame   0x00000000       0x38 ..\obj\mbcrc.o
 .ARM.attributes
                0x00000000       0x37 ..\obj\mbcrc.o
 .text          0x00000000        0x0 ..\obj\stm32f4xx_rcc.o
 .bss           0x00000000        0x0 ..\obj\stm32f4xx_rcc.o
 .text.RCC_DeInit
                0x00000000       0x50 ..\obj\stm32f4xx_rcc.o
 .text.RCC_HSEConfig
                0x00000000       0x24 ..\obj\stm32f4xx_rcc.o
 .text.RCC_WaitForHSEStartUp
                0x00000000       0x50 ..\obj\stm32f4xx_rcc.o
 .text.RCC_AdjustHSICalibrationValue
                0x00000000       0x3c ..\obj\stm32f4xx_rcc.o
 .text.RCC_HSICmd
                0x00000000       0x20 ..\obj\stm32f4xx_rcc.o
 .text.RCC_LSEConfig
                0x00000000       0x40 ..\obj\stm32f4xx_rcc.o
 .text.RCC_LSICmd
                0x00000000       0x20 ..\obj\stm32f4xx_rcc.o
 .text.RCC_PLLConfig
                0x00000000       0x3c ..\obj\stm32f4xx_rcc.o
 .text.RCC_PLLCmd
                0x00000000       0x20 ..\obj\stm32f4xx_rcc.o
 .text.RCC_PLLI2SConfig
                0x00000000       0x28 ..\obj\stm32f4xx_rcc.o
 .text.RCC_PLLI2SCmd
                0x00000000       0x20 ..\obj\stm32f4xx_rcc.o
 .text.RCC_ClockSecuritySystemCmd
                0x00000000       0x20 ..\obj\stm32f4xx_rcc.o
 .text.RCC_MCO2Config
                0x00000000       0x3c ..\obj\stm32f4xx_rcc.o
 .text.RCC_SYSCLKConfig
                0x00000000       0x38 ..\obj\stm32f4xx_rcc.o
 .text.RCC_GetSYSCLKSource
                0x00000000       0x20 ..\obj\stm32f4xx_rcc.o
 .text.RCC_HCLKConfig
                0x00000000       0x38 ..\obj\stm32f4xx_rcc.o
 .text.RCC_PCLK1Config
                0x00000000       0x38 ..\obj\stm32f4xx_rcc.o
 .text.RCC_PCLK2Config
                0x00000000       0x38 ..\obj\stm32f4xx_rcc.o
 .text.RCC_RTCCLKConfig
                0x00000000       0x5c ..\obj\stm32f4xx_rcc.o
 .text.RCC_RTCCLKCmd
                0x00000000       0x20 ..\obj\stm32f4xx_rcc.o
 .text.RCC_BackupResetCmd
                0x00000000       0x20 ..\obj\stm32f4xx_rcc.o
 .text.RCC_I2SCLKConfig
                0x00000000       0x1c ..\obj\stm32f4xx_rcc.o
 .text.RCC_AHB3PeriphClockCmd
                0x00000000       0x3c ..\obj\stm32f4xx_rcc.o
 .text.RCC_AHB2PeriphResetCmd
                0x00000000       0x3c ..\obj\stm32f4xx_rcc.o
 .text.RCC_AHB3PeriphResetCmd
                0x00000000       0x3c ..\obj\stm32f4xx_rcc.o
 .text.RCC_APB1PeriphResetCmd
                0x00000000       0x3c ..\obj\stm32f4xx_rcc.o
 .text.RCC_APB2PeriphResetCmd
                0x00000000       0x3c ..\obj\stm32f4xx_rcc.o
 .text.RCC_AHB1PeriphClockLPModeCmd
                0x00000000       0x3c ..\obj\stm32f4xx_rcc.o
 .text.RCC_AHB2PeriphClockLPModeCmd
                0x00000000       0x3c ..\obj\stm32f4xx_rcc.o
 .text.RCC_AHB3PeriphClockLPModeCmd
                0x00000000       0x3c ..\obj\stm32f4xx_rcc.o
 .text.RCC_APB1PeriphClockLPModeCmd
                0x00000000       0x3c ..\obj\stm32f4xx_rcc.o
 .text.RCC_APB2PeriphClockLPModeCmd
                0x00000000       0x3c ..\obj\stm32f4xx_rcc.o
 .text.RCC_ITConfig
                0x00000000       0x4c ..\obj\stm32f4xx_rcc.o
 .text.RCC_GetFlagStatus
                0x00000000       0x74 ..\obj\stm32f4xx_rcc.o
 .text.RCC_ClearFlag
                0x00000000       0x1c ..\obj\stm32f4xx_rcc.o
 .text.RCC_GetITStatus
                0x00000000       0x38 ..\obj\stm32f4xx_rcc.o
 .text.RCC_ClearITPendingBit
                0x00000000       0x20 ..\obj\stm32f4xx_rcc.o
 .text          0x00000000        0x0 ..\obj\mib2.o
 .data          0x00000000        0x0 ..\obj\mib2.o
 .bss           0x00000000        0x0 ..\obj\mib2.o
 .debug_info    0x00000000       0x4b ..\obj\mib2.o
 .debug_abbrev  0x00000000       0x24 ..\obj\mib2.o
 .debug_aranges
                0x00000000       0x18 ..\obj\mib2.o
 .debug_line    0x00000000       0x1d ..\obj\mib2.o
 .debug_str     0x00000000      0x14a ..\obj\mib2.o
 .comment       0x00000000       0x71 ..\obj\mib2.o
 .ARM.attributes
                0x00000000       0x37 ..\obj\mib2.o
 .text          0x00000000        0x0 ..\obj\stm32f4xx_it.o
 .data          0x00000000        0x0 ..\obj\stm32f4xx_it.o
 .bss           0x00000000        0x0 ..\obj\stm32f4xx_it.o
 .text          0x00000000        0x0 ..\obj\netdb.o
 .data          0x00000000        0x0 ..\obj\netdb.o
 .bss           0x00000000        0x0 ..\obj\netdb.o
 .debug_info    0x00000000       0x4b ..\obj\netdb.o
 .debug_abbrev  0x00000000       0x24 ..\obj\netdb.o
 .debug_aranges
                0x00000000       0x18 ..\obj\netdb.o
 .debug_line    0x00000000       0x1d ..\obj\netdb.o
 .debug_str     0x00000000      0x145 ..\obj\netdb.o
 .comment       0x00000000       0x71 ..\obj\netdb.o
 .ARM.attributes
                0x00000000       0x37 ..\obj\netdb.o
 .text          0x00000000        0x0 ..\obj\timers.o
 .data          0x00000000        0x0 ..\obj\timers.o
 .text          0x00000000        0x0 ..\obj\init.o
 .data          0x00000000        0x0 ..\obj\init.o
 .bss           0x00000000        0x0 ..\obj\init.o
 .text          0x00000000        0x0 ..\obj\stm32f4xx_adc.o
 .data          0x00000000        0x0 ..\obj\stm32f4xx_adc.o
 .bss           0x00000000        0x0 ..\obj\stm32f4xx_adc.o
 .text.ADC_DeInit
                0x00000000       0x1c ..\obj\stm32f4xx_adc.o
 .text.ADC_Init
                0x00000000       0xa8 ..\obj\stm32f4xx_adc.o
 .text.ADC_StructInit
                0x00000000       0x3c ..\obj\stm32f4xx_adc.o
 .text.ADC_CommonInit
                0x00000000       0x50 ..\obj\stm32f4xx_adc.o
 .text.ADC_CommonStructInit
                0x00000000       0x2c ..\obj\stm32f4xx_adc.o
 .text.ADC_Cmd  0x00000000       0x38 ..\obj\stm32f4xx_adc.o
 .text.ADC_AnalogWatchdogCmd
                0x00000000       0x38 ..\obj\stm32f4xx_adc.o
 .text.ADC_AnalogWatchdogThresholdsConfig
                0x00000000       0x28 ..\obj\stm32f4xx_adc.o
 .text.ADC_AnalogWatchdogSingleChannelConfig
                0x00000000       0x38 ..\obj\stm32f4xx_adc.o
 .text.ADC_TempSensorVrefintCmd
                0x00000000       0x38 ..\obj\stm32f4xx_adc.o
 .text.ADC_VBATCmd
                0x00000000       0x38 ..\obj\stm32f4xx_adc.o
 .text.ADC_RegularChannelConfig
                0x00000000      0x194 ..\obj\stm32f4xx_adc.o
 .text.ADC_SoftwareStartConv
                0x00000000       0x20 ..\obj\stm32f4xx_adc.o
 .text.ADC_GetSoftwareStartConvStatus
                0x00000000       0x30 ..\obj\stm32f4xx_adc.o
 .text.ADC_EOCOnEachRegularChannelCmd
                0x00000000       0x38 ..\obj\stm32f4xx_adc.o
 .text.ADC_ContinuousModeCmd
                0x00000000       0x38 ..\obj\stm32f4xx_adc.o
 .text.ADC_DiscModeChannelCountConfig
                0x00000000       0x44 ..\obj\stm32f4xx_adc.o
 .text.ADC_DiscModeCmd
                0x00000000       0x38 ..\obj\stm32f4xx_adc.o
 .text.ADC_GetConversionValue
                0x00000000       0x1c ..\obj\stm32f4xx_adc.o
 .text.ADC_GetMultiModeConversionValue
                0x00000000       0x18 ..\obj\stm32f4xx_adc.o
 .text.ADC_DMACmd
                0x00000000       0x38 ..\obj\stm32f4xx_adc.o
 .text.ADC_DMARequestAfterLastTransferCmd
                0x00000000       0x38 ..\obj\stm32f4xx_adc.o
 .text.ADC_MultiModeDMARequestAfterLastTransferCmd
                0x00000000       0x38 ..\obj\stm32f4xx_adc.o
 .text.ADC_InjectedChannelConfig
                0x00000000      0x120 ..\obj\stm32f4xx_adc.o
 .text.ADC_InjectedSequencerLengthConfig
                0x00000000       0x44 ..\obj\stm32f4xx_adc.o
 .text.ADC_SetInjectedOffset
                0x00000000       0x34 ..\obj\stm32f4xx_adc.o
 .text.ADC_ExternalTrigInjectedConvConfig
                0x00000000       0x34 ..\obj\stm32f4xx_adc.o
 .text.ADC_ExternalTrigInjectedConvEdgeConfig
                0x00000000       0x34 ..\obj\stm32f4xx_adc.o
 .text.ADC_SoftwareStartInjectedConv
                0x00000000       0x20 ..\obj\stm32f4xx_adc.o
 .text.ADC_GetSoftwareStartInjectedConvCmdStatus
                0x00000000       0x30 ..\obj\stm32f4xx_adc.o
 .text.ADC_AutoInjectedConvCmd
                0x00000000       0x38 ..\obj\stm32f4xx_adc.o
 .text.ADC_InjectedDiscModeCmd
                0x00000000       0x38 ..\obj\stm32f4xx_adc.o
 .text.ADC_GetInjectedConversionValue
                0x00000000       0x30 ..\obj\stm32f4xx_adc.o
 .text.ADC_ITConfig
                0x00000000       0x50 ..\obj\stm32f4xx_adc.o
 .text.ADC_GetFlagStatus
                0x00000000       0x34 ..\obj\stm32f4xx_adc.o
 .text.ADC_ClearFlag
                0x00000000       0x20 ..\obj\stm32f4xx_adc.o
 .text.ADC_GetITStatus
                0x00000000       0x5c ..\obj\stm32f4xx_adc.o
 .text.ADC_ClearITPendingBit
                0x00000000       0x2c ..\obj\stm32f4xx_adc.o
 .debug_info    0x00000000      0xc38 ..\obj\stm32f4xx_adc.o
 .debug_abbrev  0x00000000      0x196 ..\obj\stm32f4xx_adc.o
 .debug_aranges
                0x00000000      0x148 ..\obj\stm32f4xx_adc.o
 .debug_ranges  0x00000000      0x138 ..\obj\stm32f4xx_adc.o
 .debug_line    0x00000000      0x58a ..\obj\stm32f4xx_adc.o
 .debug_str     0x00000000      0x83e ..\obj\stm32f4xx_adc.o
 .comment       0x00000000       0x71 ..\obj\stm32f4xx_adc.o
 .debug_frame   0x00000000      0x5ec ..\obj\stm32f4xx_adc.o
 .ARM.attributes
                0x00000000       0x37 ..\obj\stm32f4xx_adc.o
 .text          0x00000000        0x0 ..\obj\stm32f4x7_eth_bsp.o
 .data          0x00000000        0x0 ..\obj\stm32f4x7_eth_bsp.o
 .text          0x00000000        0x0 ..\obj\mbfuncinput.o
 .data          0x00000000        0x0 ..\obj\mbfuncinput.o
 .bss           0x00000000        0x0 ..\obj\mbfuncinput.o
 .text          0x00000000        0x0 ..\obj\def.o
 .data          0x00000000        0x0 ..\obj\def.o
 .bss           0x00000000        0x0 ..\obj\def.o
 .text          0x00000000        0x0 ..\obj\ethernetif.o
 .data          0x00000000        0x0 ..\obj\ethernetif.o
 .text          0x00000000        0x0 ..\obj\stm32f4xx_dcmi.o
 .data          0x00000000        0x0 ..\obj\stm32f4xx_dcmi.o
 .bss           0x00000000        0x0 ..\obj\stm32f4xx_dcmi.o
 .text.DCMI_StructInit
                0x00000000       0x3c ..\obj\stm32f4xx_dcmi.o
 .text.DCMI_CROPConfig
                0x00000000       0x3c ..\obj\stm32f4xx_dcmi.o
 .text.DCMI_CROPCmd
                0x00000000       0x38 ..\obj\stm32f4xx_dcmi.o
 .text.DCMI_SetEmbeddedSynchroCodes
                0x00000000       0x38 ..\obj\stm32f4xx_dcmi.o
 .text.DCMI_ReadData
                0x00000000       0x18 ..\obj\stm32f4xx_dcmi.o
 .text.DCMI_ITConfig
                0x00000000       0x44 ..\obj\stm32f4xx_dcmi.o
 .text.DCMI_GetFlagStatus
                0x00000000       0x64 ..\obj\stm32f4xx_dcmi.o
 .text.DCMI_ClearFlag
                0x00000000       0x20 ..\obj\stm32f4xx_dcmi.o
 .text.DCMI_GetITStatus
                0x00000000       0x40 ..\obj\stm32f4xx_dcmi.o
 .text.DCMI_ClearITPendingBit
                0x00000000       0x20 ..\obj\stm32f4xx_dcmi.o
 .text          0x00000000        0x0 ..\obj\chpms.o
 .data          0x00000000        0x0 ..\obj\chpms.o
 .bss           0x00000000        0x0 ..\obj\chpms.o
 .debug_info    0x00000000       0x4b ..\obj\chpms.o
 .debug_abbrev  0x00000000       0x24 ..\obj\chpms.o
 .debug_aranges
                0x00000000       0x18 ..\obj\chpms.o
 .debug_line    0x00000000       0x1d ..\obj\chpms.o
 .debug_str     0x00000000      0x14b ..\obj\chpms.o
 .comment       0x00000000       0x71 ..\obj\chpms.o
 .ARM.attributes
                0x00000000       0x37 ..\obj\chpms.o
 .text          0x00000000        0x0 ..\obj\etharp.o
 .data          0x00000000        0x0 ..\obj\etharp.o
 .text.etharp_find_addr
                0x00000000       0x7c ..\obj\etharp.o
 .text          0x00000000        0x0 ..\obj\mbfuncdiag.o
 .data          0x00000000        0x0 ..\obj\mbfuncdiag.o
 .bss           0x00000000        0x0 ..\obj\mbfuncdiag.o
 .debug_line    0x00000000        0x0 ..\obj\mbfuncdiag.o
 .debug_str     0x00000000       0xfc ..\obj\mbfuncdiag.o
 .comment       0x00000000       0x71 ..\obj\mbfuncdiag.o
 .ARM.attributes
                0x00000000       0x37 ..\obj\mbfuncdiag.o
 .text          0x00000000        0x0 ..\obj\tasks.o
 .text.vTaskDelayUntil
                0x00000000      0x11c ..\obj\tasks.o
 .text.vTaskDelay
                0x00000000       0xa4 ..\obj\tasks.o
 .text.uxTaskPriorityGet
                0x00000000       0x34 ..\obj\tasks.o
 .text.uxTaskPriorityGetFromISR
                0x00000000       0x58 ..\obj\tasks.o
 .text.vTaskPrioritySet
                0x00000000      0x15c ..\obj\tasks.o
 .text.vTaskSuspend
                0x00000000      0x110 ..\obj\tasks.o
 .text.prvTaskIsTaskSuspended
                0x00000000       0x74 ..\obj\tasks.o
 .text.vTaskResume
                0x00000000       0xbc ..\obj\tasks.o
 .text.xTaskResumeFromISR
                0x00000000       0xe4 ..\obj\tasks.o
 .text.vTaskEndScheduler
                0x00000000       0x2c ..\obj\tasks.o
 .text.xTaskGetTickCountFromISR
                0x00000000       0x24 ..\obj\tasks.o
 .text.uxTaskGetNumberOfTasks
                0x00000000       0x18 ..\obj\tasks.o
 .text.uxTaskGetSystemState
                0x00000000       0xf8 ..\obj\tasks.o
 .text.vTaskPlaceOnUnorderedEventList
                0x00000000       0xc8 ..\obj\tasks.o
 .text.xTaskRemoveFromUnorderedEventList
                0x00000000       0xd0 ..\obj\tasks.o
 .text.uxTaskGetTaskNumber
                0x00000000       0x2c ..\obj\tasks.o
 .text.vTaskSetTaskNumber
                0x00000000       0x24 ..\obj\tasks.o
 .text.prvListTaskWithinSingleList
                0x00000000      0x118 ..\obj\tasks.o
 .text.prvTaskCheckFreeStackSpace
                0x00000000       0x38 ..\obj\tasks.o
 .text.xTaskGetCurrentTaskHandle
                0x00000000       0x20 ..\obj\tasks.o
 .text.uxTaskResetEventItemValue
                0x00000000       0x30 ..\obj\tasks.o
 .text.ulTaskNotifyTake
                0x00000000       0xe8 ..\obj\tasks.o
 .text.xTaskNotifyWait
                0x00000000      0x10c ..\obj\tasks.o
 .text.xTaskNotify
                0x00000000      0x134 ..\obj\tasks.o
 .text.xTaskNotifyFromISR
                0x00000000      0x174 ..\obj\tasks.o
 .text.vTaskNotifyGiveFromISR
                0x00000000      0x114 ..\obj\tasks.o
 .text          0x00000000        0x0 ..\obj\magic.o
 .data          0x00000000        0x0 ..\obj\magic.o
 .bss           0x00000000        0x0 ..\obj\magic.o
 .debug_info    0x00000000       0x4b ..\obj\magic.o
 .debug_abbrev  0x00000000       0x24 ..\obj\magic.o
 .debug_aranges
                0x00000000       0x18 ..\obj\magic.o
 .debug_line    0x00000000       0x1d ..\obj\magic.o
 .debug_str     0x00000000      0x14b ..\obj\magic.o
 .comment       0x00000000       0x71 ..\obj\magic.o
 .ARM.attributes
                0x00000000       0x37 ..\obj\magic.o
 .text          0x00000000        0x0 ..\obj\pbuf.o
 .data          0x00000000        0x0 ..\obj\pbuf.o
 .bss           0x00000000        0x0 ..\obj\pbuf.o
 .text.pbuf_dechain
                0x00000000       0x54 ..\obj\pbuf.o
 .text.pbuf_take
                0x00000000       0x9c ..\obj\pbuf.o
 .text.pbuf_coalesce
                0x00000000       0x50 ..\obj\pbuf.o
 .text.pbuf_get_at
                0x00000000       0x60 ..\obj\pbuf.o
 .text.pbuf_memcmp
                0x00000000       0xa0 ..\obj\pbuf.o
 .text.pbuf_memfind
                0x00000000       0x70 ..\obj\pbuf.o
 .text.pbuf_strstr
                0x00000000       0x5c ..\obj\pbuf.o
 .text          0x00000000        0x0 ..\obj\stats.o
 .data          0x00000000        0x0 ..\obj\stats.o
 .bss           0x00000000        0x0 ..\obj\stats.o
 .debug_info    0x00000000       0x4b ..\obj\stats.o
 .debug_abbrev  0x00000000       0x24 ..\obj\stats.o
 .debug_aranges
                0x00000000       0x18 ..\obj\stats.o
 .debug_line    0x00000000       0x1d ..\obj\stats.o
 .debug_str     0x00000000      0x146 ..\obj\stats.o
 .comment       0x00000000       0x71 ..\obj\stats.o
 .ARM.attributes
                0x00000000       0x37 ..\obj\stats.o
 .text          0x00000000        0x0 ..\obj\inet.o
 .data          0x00000000        0x0 ..\obj\inet.o
 .bss           0x00000000        0x0 ..\obj\inet.o
 .debug_info    0x00000000       0x52 ..\obj\inet.o
 .debug_abbrev  0x00000000       0x24 ..\obj\inet.o
 .debug_aranges
                0x00000000       0x18 ..\obj\inet.o
 .debug_line    0x00000000       0x1d ..\obj\inet.o
 .debug_str     0x00000000      0x153 ..\obj\inet.o
 .comment       0x00000000       0x71 ..\obj\inet.o
 .ARM.attributes
                0x00000000       0x37 ..\obj\inet.o
 .text          0x00000000        0x0 ..\obj\adc_dcmi.o
 .data          0x00000000        0x0 ..\obj\adc_dcmi.o
 .text          0x00000000        0x0 ..\obj\msg_in.o
 .data          0x00000000        0x0 ..\obj\msg_in.o
 .bss           0x00000000        0x0 ..\obj\msg_in.o
 .debug_info    0x00000000       0x4b ..\obj\msg_in.o
 .debug_abbrev  0x00000000       0x24 ..\obj\msg_in.o
 .debug_aranges
                0x00000000       0x18 ..\obj\msg_in.o
 .debug_line    0x00000000       0x1d ..\obj\msg_in.o
 .debug_str     0x00000000      0x14c ..\obj\msg_in.o
 .comment       0x00000000       0x71 ..\obj\msg_in.o
 .ARM.attributes
                0x00000000       0x37 ..\obj\msg_in.o
 .text          0x00000000        0x0 ..\obj\netif.o
 .data          0x00000000        0x0 ..\obj\netif.o
 .text.netif_remove
                0x00000000       0x88 ..\obj\netif.o
 .text.netif_find
                0x00000000       0x70 ..\obj\netif.o
 .text.netif_set_link_up
                0x00000000       0x64 ..\obj\netif.o
 .text.netif_set_link_down
                0x00000000       0x34 ..\obj\netif.o
 .text          0x00000000        0x0 ..\obj\asn1_enc.o
 .data          0x00000000        0x0 ..\obj\asn1_enc.o
 .bss           0x00000000        0x0 ..\obj\asn1_enc.o
 .debug_info    0x00000000       0x4b ..\obj\asn1_enc.o
 .debug_abbrev  0x00000000       0x24 ..\obj\asn1_enc.o
 .debug_aranges
                0x00000000       0x18 ..\obj\asn1_enc.o
 .debug_line    0x00000000       0x1d ..\obj\asn1_enc.o
 .debug_str     0x00000000      0x14e ..\obj\asn1_enc.o
 .comment       0x00000000       0x71 ..\obj\asn1_enc.o
 .ARM.attributes
                0x00000000       0x37 ..\obj\asn1_enc.o
 .text          0x00000000        0x0 ..\obj\fsm.o
 .data          0x00000000        0x0 ..\obj\fsm.o
 .bss           0x00000000        0x0 ..\obj\fsm.o
 .debug_info    0x00000000       0x4b ..\obj\fsm.o
 .debug_abbrev  0x00000000       0x24 ..\obj\fsm.o
 .debug_aranges
                0x00000000       0x18 ..\obj\fsm.o
 .debug_line    0x00000000       0x1d ..\obj\fsm.o
 .debug_str     0x00000000      0x149 ..\obj\fsm.o
 .comment       0x00000000       0x71 ..\obj\fsm.o
 .ARM.attributes
                0x00000000       0x37 ..\obj\fsm.o
 .text          0x00000000        0x0 ..\obj\api_msg.o
 .data          0x00000000        0x0 ..\obj\api_msg.o
 .bss           0x00000000        0x0 ..\obj\api_msg.o
 .text.recv_raw
                0x00000000       0xd0 ..\obj\api_msg.o
 .text.recv_udp
                0x00000000       0x9c ..\obj\api_msg.o
 .text.recv_tcp
                0x00000000       0x9c ..\obj\api_msg.o
 .text.poll_tcp
                0x00000000       0x8c ..\obj\api_msg.o
 .text.sent_tcp
                0x00000000       0x88 ..\obj\api_msg.o
 .text.err_tcp  0x00000000       0xe4 ..\obj\api_msg.o
 .text.setup_tcp
                0x00000000       0x50 ..\obj\api_msg.o
 .text.accept_function
                0x00000000       0xd0 ..\obj\api_msg.o
 .text.pcb_new  0x00000000       0xe4 ..\obj\api_msg.o
 .text.do_newconn
                0x00000000       0x30 ..\obj\api_msg.o
 .text.netconn_alloc
                0x00000000       0xc8 ..\obj\api_msg.o
 .text.netconn_free
                0x00000000       0x28 ..\obj\api_msg.o
 .text.netconn_drain
                0x00000000       0xe0 ..\obj\api_msg.o
 .text.do_close_internal
                0x00000000      0x194 ..\obj\api_msg.o
 .text.do_delconn
                0x00000000      0x110 ..\obj\api_msg.o
 .text.do_bind  0x00000000       0xbc ..\obj\api_msg.o
 .text.do_connected
                0x00000000       0xc0 ..\obj\api_msg.o
 .text.do_connect
                0x00000000      0x138 ..\obj\api_msg.o
 .text.do_disconnect
                0x00000000       0x44 ..\obj\api_msg.o
 .text.do_listen
                0x00000000      0x114 ..\obj\api_msg.o
 .text.do_send  0x00000000      0x10c ..\obj\api_msg.o
 .text.do_recv  0x00000000       0x6c ..\obj\api_msg.o
 .text.do_writemore
                0x00000000      0x1cc ..\obj\api_msg.o
 .text.do_write
                0x00000000       0x94 ..\obj\api_msg.o
 .text.do_getaddr
                0x00000000       0xf4 ..\obj\api_msg.o
 .text.do_close
                0x00000000       0xa4 ..\obj\api_msg.o
 .debug_info    0x00000000     0x12a4 ..\obj\api_msg.o
 .debug_abbrev  0x00000000      0x22f ..\obj\api_msg.o
 .debug_aranges
                0x00000000       0xe8 ..\obj\api_msg.o
 .debug_ranges  0x00000000       0xd8 ..\obj\api_msg.o
 .debug_line    0x00000000      0x86c ..\obj\api_msg.o
 .debug_str     0x00000000      0x9ae ..\obj\api_msg.o
 .comment       0x00000000       0x71 ..\obj\api_msg.o
 .debug_frame   0x00000000      0x3bc ..\obj\api_msg.o
 .ARM.attributes
                0x00000000       0x37 ..\obj\api_msg.o
 .text          0x00000000        0x0 ..\obj\chap.o
 .data          0x00000000        0x0 ..\obj\chap.o
 .bss           0x00000000        0x0 ..\obj\chap.o
 .debug_info    0x00000000       0x4b ..\obj\chap.o
 .debug_abbrev  0x00000000       0x24 ..\obj\chap.o
 .debug_aranges
                0x00000000       0x18 ..\obj\chap.o
 .debug_line    0x00000000       0x1d ..\obj\chap.o
 .debug_str     0x00000000      0x14a ..\obj\chap.o
 .comment       0x00000000       0x71 ..\obj\chap.o
 .ARM.attributes
                0x00000000       0x37 ..\obj\chap.o
 .text          0x00000000        0x0 ..\obj\stm32f4xx_gpio.o
 .data          0x00000000        0x0 ..\obj\stm32f4xx_gpio.o
 .bss           0x00000000        0x0 ..\obj\stm32f4xx_gpio.o
 .text.GPIO_DeInit
                0x00000000      0x120 ..\obj\stm32f4xx_gpio.o
 .text.GPIO_StructInit
                0x00000000       0x34 ..\obj\stm32f4xx_gpio.o
 .text.GPIO_PinLockConfig
                0x00000000       0x44 ..\obj\stm32f4xx_gpio.o
 .text.GPIO_ReadInputDataBit
                0x00000000       0x34 ..\obj\stm32f4xx_gpio.o
 .text.GPIO_ReadInputData
                0x00000000       0x1c ..\obj\stm32f4xx_gpio.o
 .text.GPIO_ReadOutputDataBit
                0x00000000       0x34 ..\obj\stm32f4xx_gpio.o
 .text.GPIO_ReadOutputData
                0x00000000       0x1c ..\obj\stm32f4xx_gpio.o
 .text.GPIO_WriteBit
                0x00000000       0x30 ..\obj\stm32f4xx_gpio.o
 .text.GPIO_Write
                0x00000000       0x1c ..\obj\stm32f4xx_gpio.o
 .text          0x00000000        0x0 ..\obj\stm32f4xx_flash.o
 .data          0x00000000        0x0 ..\obj\stm32f4xx_flash.o
 .bss           0x00000000        0x0 ..\obj\stm32f4xx_flash.o
 .text.FLASH_SetLatency
                0x00000000       0x20 ..\obj\stm32f4xx_flash.o
 .text.FLASH_PrefetchBufferCmd
                0x00000000       0x38 ..\obj\stm32f4xx_flash.o
 .text.FLASH_InstructionCacheCmd
                0x00000000       0x38 ..\obj\stm32f4xx_flash.o
 .text.FLASH_DataCacheCmd
                0x00000000       0x38 ..\obj\stm32f4xx_flash.o
 .text.FLASH_InstructionCacheReset
                0x00000000       0x1c ..\obj\stm32f4xx_flash.o
 .text.FLASH_DataCacheReset
                0x00000000       0x1c ..\obj\stm32f4xx_flash.o
 .text.FLASH_EraseAllSectors
                0x00000000       0xa0 ..\obj\stm32f4xx_flash.o
 .text.FLASH_ProgramDoubleWord
                0x00000000       0x70 ..\obj\stm32f4xx_flash.o
 .text.FLASH_ProgramHalfWord
                0x00000000       0x6c ..\obj\stm32f4xx_flash.o
 .text.FLASH_ProgramByte
                0x00000000       0x68 ..\obj\stm32f4xx_flash.o
 .text.FLASH_OB_Unlock
                0x00000000       0x30 ..\obj\stm32f4xx_flash.o
 .text.FLASH_OB_Lock
                0x00000000       0x1c ..\obj\stm32f4xx_flash.o
 .text.FLASH_OB_WRPConfig
                0x00000000       0x58 ..\obj\stm32f4xx_flash.o
 .text.FLASH_OB_RDPConfig
                0x00000000       0x2c ..\obj\stm32f4xx_flash.o
 .text.FLASH_OB_UserConfig
                0x00000000       0x58 ..\obj\stm32f4xx_flash.o
 .text.FLASH_OB_BORConfig
                0x00000000       0x38 ..\obj\stm32f4xx_flash.o
 .text.FLASH_OB_Launch
                0x00000000       0x30 ..\obj\stm32f4xx_flash.o
 .text.FLASH_OB_GetUser
                0x00000000       0x1c ..\obj\stm32f4xx_flash.o
 .text.FLASH_OB_GetWRP
                0x00000000       0x18 ..\obj\stm32f4xx_flash.o
 .text.FLASH_OB_GetRDP
                0x00000000       0x30 ..\obj\stm32f4xx_flash.o
 .text.FLASH_OB_GetBOR
                0x00000000       0x20 ..\obj\stm32f4xx_flash.o
 .text.FLASH_ITConfig
                0x00000000       0x3c ..\obj\stm32f4xx_flash.o
 .text.FLASH_GetFlagStatus
                0x00000000       0x34 ..\obj\stm32f4xx_flash.o
 .text          0x00000000        0x0 ..\obj\md5.o
 .data          0x00000000        0x0 ..\obj\md5.o
 .bss           0x00000000        0x0 ..\obj\md5.o
 .debug_info    0x00000000       0x4b ..\obj\md5.o
 .debug_abbrev  0x00000000       0x24 ..\obj\md5.o
 .debug_aranges
                0x00000000       0x18 ..\obj\md5.o
 .debug_line    0x00000000       0x1d ..\obj\md5.o
 .debug_str     0x00000000      0x149 ..\obj\md5.o
 .comment       0x00000000       0x71 ..\obj\md5.o
 .ARM.attributes
                0x00000000       0x37 ..\obj\md5.o
 .text          0x00000000        0x0 ..\obj\sys_arch.o
 .data          0x00000000        0x0 ..\obj\sys_arch.o
 .text.sys_mbox_free
                0x00000000       0x40 ..\obj\sys_arch.o
 .text.sys_mbox_post
                0x00000000       0x2c ..\obj\sys_arch.o
 .text.sys_arch_mbox_tryfetch
                0x00000000       0x6c ..\obj\sys_arch.o
 .text.sys_sem_new
                0x00000000       0x68 ..\obj\sys_arch.o
 .text.sys_arch_sem_wait
                0x00000000       0x88 ..\obj\sys_arch.o
 .text.sys_mutex_free
                0x00000000       0x18 ..\obj\sys_arch.o
 .text.sys_sem_signal
                0x00000000       0x40 ..\obj\sys_arch.o
 .text.sys_sem_free
                0x00000000       0x18 ..\obj\sys_arch.o
 .text.sys_now  0x00000000       0x10 ..\obj\sys_arch.o
 .text.sys_arch_protect
                0x00000000       0x1c ..\obj\sys_arch.o
 .text.sys_arch_unprotect
                0x00000000       0x20 ..\obj\sys_arch.o
 .text.sys_assert
                0x00000000        0xc ..\obj\sys_arch.o
 .text          0x00000000        0x0 ..\obj\list.o
 .data          0x00000000        0x0 ..\obj\list.o
 .bss           0x00000000        0x0 ..\obj\list.o
 .text          0x00000000        0x0 ..\obj\mbrtu.o
 .data          0x00000000        0x0 ..\obj\mbrtu.o
 .bss           0x00000000        0xc ..\obj\mbrtu.o
 .text.eMBRTUInit
                0x00000000       0x78 ..\obj\mbrtu.o
 .text.eMBRTUStart
                0x00000000       0x24 ..\obj\mbrtu.o
 .text.eMBRTUStop
                0x00000000       0x1c ..\obj\mbrtu.o
 .text.eMBRTUReceive
                0x00000000       0x7c ..\obj\mbrtu.o
 .text.eMBRTUSend
                0x00000000       0xc8 ..\obj\mbrtu.o
 .text.xMBRTUReceiveFSM
                0x00000000       0xb4 ..\obj\mbrtu.o
 .text.xMBRTUTransmitFSM
                0x00000000       0x90 ..\obj\mbrtu.o
 .text.xMBRTUTimerT35Expired
                0x00000000       0x68 ..\obj\mbrtu.o
 .debug_info    0x00000000      0x4b0 ..\obj\mbrtu.o
 .debug_abbrev  0x00000000      0x12d ..\obj\mbrtu.o
 .debug_aranges
                0x00000000       0x58 ..\obj\mbrtu.o
 .debug_ranges  0x00000000       0x48 ..\obj\mbrtu.o
 .debug_line    0x00000000      0x200 ..\obj\mbrtu.o
 .debug_str     0x00000000      0x460 ..\obj\mbrtu.o
 .comment       0x00000000       0x71 ..\obj\mbrtu.o
 .debug_frame   0x00000000      0x120 ..\obj\mbrtu.o
 .ARM.attributes
                0x00000000       0x37 ..\obj\mbrtu.o
 COMMON         0x00000000      0x100 ..\obj\mbrtu.o
 .text          0x00000000        0x0 ..\obj\system_stm32f4xx.o
 .bss           0x00000000        0x0 ..\obj\system_stm32f4xx.o
 .text.SystemCoreClockUpdate
                0x00000000       0xf8 ..\obj\system_stm32f4xx.o
 .text          0x00000000        0x0 ..\obj\syscalls.o
 .data          0x00000000        0x0 ..\obj\syscalls.o
 .text.link     0x00000000       0x1c ..\obj\syscalls.o
 .text.abort    0x00000000        0x8 ..\obj\syscalls.o
 .text          0x00000000        0x0 ..\obj\stm32f4xx_dma.o
 .data          0x00000000        0x0 ..\obj\stm32f4xx_dma.o
 .bss           0x00000000        0x0 ..\obj\stm32f4xx_dma.o
 .text.DMA_DeInit
                0x00000000      0x1a4 ..\obj\stm32f4xx_dma.o
 .text.DMA_StructInit
                0x00000000       0x6c ..\obj\stm32f4xx_dma.o
 .text.DMA_PeriphIncOffsetSizeConfig
                0x00000000       0x34 ..\obj\stm32f4xx_dma.o
 .text.DMA_FlowControllerConfig
                0x00000000       0x34 ..\obj\stm32f4xx_dma.o
 .text.DMA_SetCurrDataCounter
                0x00000000       0x1c ..\obj\stm32f4xx_dma.o
 .text.DMA_GetCurrDataCounter
                0x00000000       0x1c ..\obj\stm32f4xx_dma.o
 .text.DMA_DoubleBufferModeConfig
                0x00000000       0x3c ..\obj\stm32f4xx_dma.o
 .text.DMA_DoubleBufferModeCmd
                0x00000000       0x38 ..\obj\stm32f4xx_dma.o
 .text.DMA_MemoryTargetConfig
                0x00000000       0x2c ..\obj\stm32f4xx_dma.o
 .text.DMA_GetCurrentMemoryTarget
                0x00000000       0x30 ..\obj\stm32f4xx_dma.o
 .text.DMA_GetCmdStatus
                0x00000000       0x30 ..\obj\stm32f4xx_dma.o
 .text.DMA_GetFIFOStatus
                0x00000000       0x24 ..\obj\stm32f4xx_dma.o
 .text.DMA_GetFlagStatus
                0x00000000       0x78 ..\obj\stm32f4xx_dma.o
 .text.DMA_ClearFlag
                0x00000000       0x5c ..\obj\stm32f4xx_dma.o
 .text          0x00000000        0x0 ..\obj\portother.o
 .text.vMBPortSetWithinException
                0x00000000       0x20 ..\obj\portother.o
 .text.vMBPortEnterCritical
                0x00000000        0xc ..\obj\portother.o
 .text.vMBPortExitCritical
                0x00000000        0xc ..\obj\portother.o
 .text.vMBPortClose
                0x00000000        0xc ..\obj\portother.o
 .text          0x00000000        0x0 ..\obj\queue.o
 .data          0x00000000        0x0 ..\obj\queue.o
 .bss           0x00000000        0x0 ..\obj\queue.o
 .text.xQueueGiveMutexRecursive
                0x00000000       0x68 ..\obj\queue.o
 .text.xQueueTakeMutexRecursive
                0x00000000       0x70 ..\obj\queue.o
 .text.xQueueReceiveFromISR
                0x00000000       0xe8 ..\obj\queue.o
 .text.xQueuePeekFromISR
                0x00000000       0xcc ..\obj\queue.o
 .text.uxQueueMessagesWaiting
                0x00000000       0x3c ..\obj\queue.o
 .text.uxQueueSpacesAvailable
                0x00000000       0x44 ..\obj\queue.o
 .text.uxQueueMessagesWaitingFromISR
                0x00000000       0x38 ..\obj\queue.o
 .text.vQueueDelete
                0x00000000       0x34 ..\obj\queue.o
 .text.uxQueueGetQueueNumber
                0x00000000       0x18 ..\obj\queue.o
 .text.vQueueSetQueueNumber
                0x00000000       0x1c ..\obj\queue.o
 .text.ucQueueGetQueueType
                0x00000000       0x1c ..\obj\queue.o
 .text.xQueueIsQueueEmptyFromISR
                0x00000000       0x44 ..\obj\queue.o
 .text.xQueueIsQueueFullFromISR
                0x00000000       0x48 ..\obj\queue.o
 .text          0x00000000        0x0 ..\obj\port.o
 .rodata        0x00000000        0x4 ..\obj\port.o
 .text.vPortEndScheduler
                0x00000000       0x34 ..\obj\port.o
 .text          0x00000000        0x0 ..\obj\sockets.o
 .data          0x00000000        0x0 ..\obj\sockets.o
 .bss           0x00000000        0x0 ..\obj\sockets.o
 .debug_info    0x00000000       0x4b ..\obj\sockets.o
 .debug_abbrev  0x00000000       0x24 ..\obj\sockets.o
 .debug_aranges
                0x00000000       0x18 ..\obj\sockets.o
 .debug_line    0x00000000       0x1d ..\obj\sockets.o
 .debug_str     0x00000000      0x147 ..\obj\sockets.o
 .comment       0x00000000       0x71 ..\obj\sockets.o
 .ARM.attributes
                0x00000000       0x37 ..\obj\sockets.o
 .text          0x00000000        0x0 ..\obj\igmp.o
 .data          0x00000000        0x0 ..\obj\igmp.o
 .bss           0x00000000        0x0 ..\obj\igmp.o
 .debug_info    0x00000000       0x4b ..\obj\igmp.o
 .debug_abbrev  0x00000000       0x24 ..\obj\igmp.o
 .debug_aranges
                0x00000000       0x18 ..\obj\igmp.o
 .debug_line    0x00000000       0x1d ..\obj\igmp.o
 .debug_str     0x00000000      0x14a ..\obj\igmp.o
 .comment       0x00000000       0x71 ..\obj\igmp.o
 .ARM.attributes
                0x00000000       0x37 ..\obj\igmp.o
 .text          0x00000000        0x0 ..\obj\pap.o
 .data          0x00000000        0x0 ..\obj\pap.o
 .bss           0x00000000        0x0 ..\obj\pap.o
 .debug_info    0x00000000       0x4b ..\obj\pap.o
 .debug_abbrev  0x00000000       0x24 ..\obj\pap.o
 .debug_aranges
                0x00000000       0x18 ..\obj\pap.o
 .debug_line    0x00000000       0x1d ..\obj\pap.o
 .debug_str     0x00000000      0x149 ..\obj\pap.o
 .comment       0x00000000       0x71 ..\obj\pap.o
 .ARM.attributes
                0x00000000       0x37 ..\obj\pap.o
 .text          0x00000000        0x0 ..\obj\mbinit.o
 .bss           0x00000000        0x0 ..\obj\mbinit.o
 .text          0x00000000        0x0 ..\obj\cfg_info.o
 .data          0x00000000        0x0 ..\obj\cfg_info.o
 .text          0x00000000        0x0 ..\obj\croutine.o
 .data          0x00000000        0x0 ..\obj\croutine.o
 .bss           0x00000000       0x80 ..\obj\croutine.o
 .text.xCoRoutineCreate
                0x00000000       0xcc ..\obj\croutine.o
 .text.vCoRoutineAddToDelayedList
                0x00000000       0x84 ..\obj\croutine.o
 .text.prvCheckPendingReadyList
                0x00000000       0x8c ..\obj\croutine.o
 .text.prvCheckDelayedList
                0x00000000      0x108 ..\obj\croutine.o
 .text.vCoRoutineSchedule
                0x00000000       0xa0 ..\obj\croutine.o
 .text.prvInitialiseCoRoutineLists
                0x00000000       0x68 ..\obj\croutine.o
 .text.xCoRoutineRemoveFromEventList
                0x00000000       0x50 ..\obj\croutine.o
 .debug_info    0x00000000      0x56d ..\obj\croutine.o
 .debug_abbrev  0x00000000      0x206 ..\obj\croutine.o
 .debug_aranges
                0x00000000       0x50 ..\obj\croutine.o
 .debug_ranges  0x00000000       0x40 ..\obj\croutine.o
 .debug_line    0x00000000      0x327 ..\obj\croutine.o
 .debug_str     0x00000000      0x540 ..\obj\croutine.o
 .comment       0x00000000       0x71 ..\obj\croutine.o
 .debug_frame   0x00000000      0x10c ..\obj\croutine.o
 .ARM.attributes
                0x00000000       0x37 ..\obj\croutine.o
 .text          0x00000000        0x0 ..\obj\udp.o
 .bss           0x00000000        0x0 ..\obj\udp.o
 .text.udp_send
                0x00000000       0x24 ..\obj\udp.o
 .text.udp_connect
                0x00000000       0x9c ..\obj\udp.o
 .text.udp_disconnect
                0x00000000       0x2c ..\obj\udp.o
 .text.udp_recv
                0x00000000       0x24 ..\obj\udp.o
 .text.udp_remove
                0x00000000       0x60 ..\obj\udp.o
 .text          0x00000000        0x0 ..\obj\ip.o
 .data          0x00000000        0x0 ..\obj\ip.o
 .text          0x00000000        0x0 ..\obj\stm32f4xx_spi.o
 .data          0x00000000        0x0 ..\obj\stm32f4xx_spi.o
 .bss           0x00000000        0x0 ..\obj\stm32f4xx_spi.o
 .text.SPI_I2S_DeInit
                0x00000000       0x74 ..\obj\stm32f4xx_spi.o
 .text.SPI_Init
                0x00000000       0x88 ..\obj\stm32f4xx_spi.o
 .text.I2S_Init
                0x00000000      0x1b4 ..\obj\stm32f4xx_spi.o
 .text.SPI_StructInit
                0x00000000       0x48 ..\obj\stm32f4xx_spi.o
 .text.I2S_StructInit
                0x00000000       0x38 ..\obj\stm32f4xx_spi.o
 .text.SPI_Cmd  0x00000000       0x40 ..\obj\stm32f4xx_spi.o
 .text.I2S_Cmd  0x00000000       0x40 ..\obj\stm32f4xx_spi.o
 .text.SPI_DataSizeConfig
                0x00000000       0x38 ..\obj\stm32f4xx_spi.o
 .text.SPI_BiDirectionalLineConfig
                0x00000000       0x40 ..\obj\stm32f4xx_spi.o
 .text.SPI_NSSInternalSoftwareConfig
                0x00000000       0x44 ..\obj\stm32f4xx_spi.o
 .text.SPI_SSOutputCmd
                0x00000000       0x40 ..\obj\stm32f4xx_spi.o
 .text.SPI_TIModeCmd
                0x00000000       0x40 ..\obj\stm32f4xx_spi.o
 .text.I2S_FullDuplexConfig
                0x00000000       0x9c ..\obj\stm32f4xx_spi.o
 .text.SPI_I2S_ReceiveData
                0x00000000       0x1c ..\obj\stm32f4xx_spi.o
 .text.SPI_I2S_SendData
                0x00000000       0x1c ..\obj\stm32f4xx_spi.o
 .text.SPI_CalculateCRC
                0x00000000       0x40 ..\obj\stm32f4xx_spi.o
 .text.SPI_TransmitCRC
                0x00000000       0x24 ..\obj\stm32f4xx_spi.o
 .text.SPI_GetCRC
                0x00000000       0x34 ..\obj\stm32f4xx_spi.o
 .text.SPI_GetCRCPolynomial
                0x00000000       0x1c ..\obj\stm32f4xx_spi.o
 .text.SPI_I2S_DMACmd
                0x00000000       0x48 ..\obj\stm32f4xx_spi.o
 .text.SPI_I2S_ITConfig
                0x00000000       0x60 ..\obj\stm32f4xx_spi.o
 .text.SPI_I2S_GetFlagStatus
                0x00000000       0x38 ..\obj\stm32f4xx_spi.o
 .text.SPI_I2S_ClearFlag
                0x00000000       0x20 ..\obj\stm32f4xx_spi.o
 .text.SPI_I2S_GetITStatus
                0x00000000       0x78 ..\obj\stm32f4xx_spi.o
 .text.SPI_I2S_ClearITPendingBit
                0x00000000       0x34 ..\obj\stm32f4xx_spi.o
 .debug_info    0x00000000      0xb07 ..\obj\stm32f4xx_spi.o
 .debug_abbrev  0x00000000      0x167 ..\obj\stm32f4xx_spi.o
 .debug_aranges
                0x00000000       0xe0 ..\obj\stm32f4xx_spi.o
 .debug_ranges  0x00000000       0xd0 ..\obj\stm32f4xx_spi.o
 .debug_line    0x00000000      0x48a ..\obj\stm32f4xx_spi.o
 .debug_str     0x00000000      0x6c4 ..\obj\stm32f4xx_spi.o
 .comment       0x00000000       0x71 ..\obj\stm32f4xx_spi.o
 .debug_frame   0x00000000      0x3f4 ..\obj\stm32f4xx_spi.o
 .ARM.attributes
                0x00000000       0x37 ..\obj\stm32f4xx_spi.o
 .text          0x00000000        0x0 ..\obj\mbfunccoils.o
 .data          0x00000000        0x0 ..\obj\mbfunccoils.o
 .bss           0x00000000        0x0 ..\obj\mbfunccoils.o
 .text          0x00000000        0x0 ..\obj\event_groups.o
 .data          0x00000000        0x0 ..\obj\event_groups.o
 .bss           0x00000000        0x0 ..\obj\event_groups.o
 .text.xEventGroupCreate
                0x00000000       0x30 ..\obj\event_groups.o
 .text.xEventGroupSync
                0x00000000      0x128 ..\obj\event_groups.o
 .text.xEventGroupWaitBits
                0x00000000      0x164 ..\obj\event_groups.o
 .text.xEventGroupClearBits
                0x00000000       0x6c ..\obj\event_groups.o
 .text.xEventGroupGetBitsFromISR
                0x00000000       0x48 ..\obj\event_groups.o
 .text.xEventGroupSetBits
                0x00000000      0x114 ..\obj\event_groups.o
 .text.vEventGroupDelete
                0x00000000       0x60 ..\obj\event_groups.o
 .text.vEventGroupSetBitsCallback
                0x00000000       0x18 ..\obj\event_groups.o
 .text.vEventGroupClearBitsCallback
                0x00000000       0x18 ..\obj\event_groups.o
 .text.prvTestWaitCondition
                0x00000000       0x44 ..\obj\event_groups.o
 .text.uxEventGroupGetNumber
                0x00000000       0x2c ..\obj\event_groups.o
 .debug_info    0x00000000      0x86d ..\obj\event_groups.o
 .debug_abbrev  0x00000000      0x1e1 ..\obj\event_groups.o
 .debug_aranges
                0x00000000       0x70 ..\obj\event_groups.o
 .debug_ranges  0x00000000       0x60 ..\obj\event_groups.o
 .debug_line    0x00000000      0x420 ..\obj\event_groups.o
 .debug_str     0x00000000      0x588 ..\obj\event_groups.o
 .comment       0x00000000       0x71 ..\obj\event_groups.o
 .debug_frame   0x00000000      0x1a8 ..\obj\event_groups.o
 .ARM.attributes
                0x00000000       0x37 ..\obj\event_groups.o
 .text          0x00000000        0x0 ..\obj\auth.o
 .data          0x00000000        0x0 ..\obj\auth.o
 .bss           0x00000000        0x0 ..\obj\auth.o
 .debug_info    0x00000000       0x4b ..\obj\auth.o
 .debug_abbrev  0x00000000       0x24 ..\obj\auth.o
 .debug_aranges
                0x00000000       0x18 ..\obj\auth.o
 .debug_line    0x00000000       0x1d ..\obj\auth.o
 .debug_str     0x00000000      0x14a ..\obj\auth.o
 .comment       0x00000000       0x71 ..\obj\auth.o
 .ARM.attributes
                0x00000000       0x37 ..\obj\auth.o
 .text          0x00000000        0x0 ..\obj\stm32f4xx_exti.o
 .data          0x00000000        0x0 ..\obj\stm32f4xx_exti.o
 .bss           0x00000000        0x0 ..\obj\stm32f4xx_exti.o
 .text.EXTI_DeInit
                0x00000000       0x34 ..\obj\stm32f4xx_exti.o
 .text.EXTI_Init
                0x00000000       0xe4 ..\obj\stm32f4xx_exti.o
 .text.EXTI_StructInit
                0x00000000       0x2c ..\obj\stm32f4xx_exti.o
 .text.EXTI_GenerateSWInterrupt
                0x00000000       0x24 ..\obj\stm32f4xx_exti.o
 .text.EXTI_GetFlagStatus
                0x00000000       0x34 ..\obj\stm32f4xx_exti.o
 .text.EXTI_ClearFlag
                0x00000000       0x1c ..\obj\stm32f4xx_exti.o
 .text.EXTI_GetITStatus
                0x00000000       0x48 ..\obj\stm32f4xx_exti.o
 .text.EXTI_ClearITPendingBit
                0x00000000       0x1c ..\obj\stm32f4xx_exti.o
 .debug_info    0x00000000      0x347 ..\obj\stm32f4xx_exti.o
 .debug_abbrev  0x00000000      0x1a5 ..\obj\stm32f4xx_exti.o
 .debug_aranges
                0x00000000       0x58 ..\obj\stm32f4xx_exti.o
 .debug_ranges  0x00000000       0x48 ..\obj\stm32f4xx_exti.o
 .debug_line    0x00000000      0x2dd ..\obj\stm32f4xx_exti.o
 .debug_str     0x00000000      0x393 ..\obj\stm32f4xx_exti.o
 .comment       0x00000000       0x71 ..\obj\stm32f4xx_exti.o
 .debug_frame   0x00000000      0x148 ..\obj\stm32f4xx_exti.o
 .ARM.attributes
                0x00000000       0x37 ..\obj\stm32f4xx_exti.o
 .text          0x00000000        0x0 ..\obj\icmp.o
 .data          0x00000000        0x0 ..\obj\icmp.o
 .bss           0x00000000        0x0 ..\obj\icmp.o
 .text          0x00000000        0x0 ..\obj\ppp_oe.o
 .data          0x00000000        0x0 ..\obj\ppp_oe.o
 .bss           0x00000000        0x0 ..\obj\ppp_oe.o
 .debug_info    0x00000000       0x4b ..\obj\ppp_oe.o
 .debug_abbrev  0x00000000       0x24 ..\obj\ppp_oe.o
 .debug_aranges
                0x00000000       0x18 ..\obj\ppp_oe.o
 .debug_line    0x00000000       0x1d ..\obj\ppp_oe.o
 .debug_str     0x00000000      0x14c ..\obj\ppp_oe.o
 .comment       0x00000000       0x71 ..\obj\ppp_oe.o
 .ARM.attributes
                0x00000000       0x37 ..\obj\ppp_oe.o
 .text          0x00000000        0x0 ..\obj\dns.o
 .data          0x00000000        0x0 ..\obj\dns.o
 .bss           0x00000000        0x0 ..\obj\dns.o
 .debug_info    0x00000000       0x4b ..\obj\dns.o
 .debug_abbrev  0x00000000       0x24 ..\obj\dns.o
 .debug_aranges
                0x00000000       0x18 ..\obj\dns.o
 .debug_line    0x00000000       0x1d ..\obj\dns.o
 .debug_str     0x00000000      0x144 ..\obj\dns.o
 .comment       0x00000000       0x71 ..\obj\dns.o
 .ARM.attributes
                0x00000000       0x37 ..\obj\dns.o
 .text          0x00000000        0x0 ..\obj\netifapi.o
 .data          0x00000000        0x0 ..\obj\netifapi.o
 .bss           0x00000000        0x0 ..\obj\netifapi.o
 .debug_info    0x00000000       0x4b ..\obj\netifapi.o
 .debug_abbrev  0x00000000       0x24 ..\obj\netifapi.o
 .debug_aranges
                0x00000000       0x18 ..\obj\netifapi.o
 .debug_line    0x00000000       0x1d ..\obj\netifapi.o
 .debug_str     0x00000000      0x148 ..\obj\netifapi.o
 .comment       0x00000000       0x71 ..\obj\netifapi.o
 .ARM.attributes
                0x00000000       0x37 ..\obj\netifapi.o
 .text          0x00000000        0x0 ..\obj\misc.o
 .data          0x00000000        0x0 ..\obj\misc.o
 .bss           0x00000000        0x0 ..\obj\misc.o
 .text.NVIC_SetVectorTable
                0x00000000       0x2c ..\obj\misc.o
 .text.NVIC_SystemLPConfig
                0x00000000       0x40 ..\obj\misc.o
 .text.SysTick_CLKSourceConfig
                0x00000000       0x38 ..\obj\misc.o
 .text          0x00000000        0x0 ..\obj\api_lib.o
 .data          0x00000000        0x0 ..\obj\api_lib.o
 .bss           0x00000000        0x0 ..\obj\api_lib.o
 .text.netconn_new_with_proto_and_callback
                0x00000000       0x6c ..\obj\api_lib.o
 .text.netconn_delete
                0x00000000       0x3c ..\obj\api_lib.o
 .text.netconn_getaddr
                0x00000000       0x78 ..\obj\api_lib.o
 .text.netconn_bind
                0x00000000       0x60 ..\obj\api_lib.o
 .text.netconn_connect
                0x00000000       0x60 ..\obj\api_lib.o
 .text.netconn_disconnect
                0x00000000       0x50 ..\obj\api_lib.o
 .text.netconn_listen_with_backlog
                0x00000000       0x54 ..\obj\api_lib.o
 .text.netconn_accept
                0x00000000       0x9c ..\obj\api_lib.o
 .text.netconn_recv_data
                0x00000000      0x108 ..\obj\api_lib.o
 .text.netconn_recv_tcp_pbuf
                0x00000000       0x30 ..\obj\api_lib.o
 .text.netconn_recv
                0x00000000       0xc0 ..\obj\api_lib.o
 .text.netconn_recved
                0x00000000       0x44 ..\obj\api_lib.o
 .text.netconn_sendto
                0x00000000       0x44 ..\obj\api_lib.o
 .text.netconn_send
                0x00000000       0x58 ..\obj\api_lib.o
 .text.netconn_write_partly
                0x00000000       0xd0 ..\obj\api_lib.o
 .text.netconn_close_shutdown
                0x00000000       0x58 ..\obj\api_lib.o
 .text.netconn_close
                0x00000000       0x1c ..\obj\api_lib.o
 .text.netconn_shutdown
                0x00000000       0x44 ..\obj\api_lib.o
 .debug_info    0x00000000     0x10f8 ..\obj\api_lib.o
 .debug_abbrev  0x00000000      0x1fd ..\obj\api_lib.o
 .debug_aranges
                0x00000000       0xa8 ..\obj\api_lib.o
 .debug_ranges  0x00000000       0x98 ..\obj\api_lib.o
 .debug_line    0x00000000      0x673 ..\obj\api_lib.o
 .debug_str     0x00000000      0x926 ..\obj\api_lib.o
 .comment       0x00000000       0x71 ..\obj\api_lib.o
 .debug_frame   0x00000000      0x298 ..\obj\api_lib.o
 .ARM.attributes
                0x00000000       0x37 ..\obj\api_lib.o
 .text          0x00000000        0x0 ..\obj\udp_send.o
 .data          0x00000000        0x0 ..\obj\udp_send.o
 .text          0x00000000        0x0 ..\obj\mbtcp.o
 .data          0x00000000        0x0 ..\obj\mbtcp.o
 .bss           0x00000000        0x0 ..\obj\mbtcp.o
 .text          0x00000000        0x0 ..\obj\dhcp.o
 .bss           0x00000000        0x0 ..\obj\dhcp.o
 .text.dhcp_handle_nak
                0x00000000       0x44 ..\obj\dhcp.o
 .text.dhcp_handle_offer
                0x00000000       0x44 ..\obj\dhcp.o
 .text.dhcp_handle_ack
                0x00000000       0xb8 ..\obj\dhcp.o
 .text.dhcp_set_struct
                0x00000000       0x20 ..\obj\dhcp.o
 .text.dhcp_cleanup
                0x00000000       0x28 ..\obj\dhcp.o
 .text.dhcp_start
                0x00000000      0x120 ..\obj\dhcp.o
 .text.dhcp_inform
                0x00000000      0x104 ..\obj\dhcp.o
 .text.dhcp_network_changed
                0x00000000       0x7c ..\obj\dhcp.o
 .text.dhcp_stop
                0x00000000       0x54 ..\obj\dhcp.o
 .text.dhcp_parse_reply
                0x00000000      0x428 ..\obj\dhcp.o
 .text.dhcp_recv
                0x00000000      0x144 ..\obj\dhcp.o
 COMMON         0x00000000       0x34 ..\obj\dhcp.o
 .text          0x00000000        0x0 ..\obj\ppp.o
 .data          0x00000000        0x0 ..\obj\ppp.o
 .bss           0x00000000        0x0 ..\obj\ppp.o
 .debug_info    0x00000000       0x4b ..\obj\ppp.o
 .debug_abbrev  0x00000000       0x24 ..\obj\ppp.o
 .debug_aranges
                0x00000000       0x18 ..\obj\ppp.o
 .debug_line    0x00000000       0x1d ..\obj\ppp.o
 .debug_str     0x00000000      0x149 ..\obj\ppp.o
 .comment       0x00000000       0x71 ..\obj\ppp.o
 .ARM.attributes
                0x00000000       0x37 ..\obj\ppp.o
 .text          0x00000000        0x0 ..\obj\mbascii.o
 .data          0x00000000        0x0 ..\obj\mbascii.o
 .bss           0x00000000        0x0 ..\obj\mbascii.o
 .debug_info    0x00000000       0x6e ..\obj\mbascii.o
 .debug_abbrev  0x00000000       0x24 ..\obj\mbascii.o
 .debug_aranges
                0x00000000       0x18 ..\obj\mbascii.o
 .debug_line    0x00000000       0x1d ..\obj\mbascii.o
 .debug_str     0x00000000      0x187 ..\obj\mbascii.o
 .comment       0x00000000       0x71 ..\obj\mbascii.o
 .ARM.attributes
                0x00000000       0x37 ..\obj\mbascii.o
 .text          0x00000000        0x0 ..\obj\mbfunc.o
 .text          0x00000000        0x0 ..\obj\heap_2.o
 .rodata        0x00000000        0x2 ..\obj\heap_2.o
 .text.xPortGetFreeHeapSize
                0x00000000       0x18 ..\obj\heap_2.o
 .text.vPortInitialiseBlocks
                0x00000000        0xc ..\obj\heap_2.o
 .text          0x00000000        0x0 ..\obj\http_server.o
 .data          0x00000000        0x0 ..\obj\http_server.o
 .bss           0x00000000        0x2 ..\obj\http_server.o
 .rodata        0x00000000      0x1f4 ..\obj\http_server.o
 .text.http_server_init
                0x00000000       0x30 ..\obj\http_server.o
 .text.http_server_serve
                0x00000000       0x98 ..\obj\http_server.o
 .text.http_server_netconn_thread
                0x00000000       0x74 ..\obj\http_server.o
 .text.http_param_handler
                0x00000000       0x74 ..\obj\http_server.o
 .debug_info    0x00000000      0x552 ..\obj\http_server.o
 .debug_abbrev  0x00000000      0x169 ..\obj\http_server.o
 .debug_aranges
                0x00000000       0x38 ..\obj\http_server.o
 .debug_ranges  0x00000000       0x28 ..\obj\http_server.o
 .debug_line    0x00000000      0x3fd ..\obj\http_server.o
 .debug_str     0x00000000      0x502 ..\obj\http_server.o
 .comment       0x00000000       0x71 ..\obj\http_server.o
 .debug_frame   0x00000000       0xa8 ..\obj\http_server.o
 .ARM.attributes
                0x00000000       0x37 ..\obj\http_server.o
 COMMON         0x00000000      0x400 ..\obj\http_server.o
 .text          0x00000000        0x0 ..\obj\ipcp.o
 .data          0x00000000        0x0 ..\obj\ipcp.o
 .bss           0x00000000        0x0 ..\obj\ipcp.o
 .debug_info    0x00000000       0x4b ..\obj\ipcp.o
 .debug_abbrev  0x00000000       0x24 ..\obj\ipcp.o
 .debug_aranges
                0x00000000       0x18 ..\obj\ipcp.o
 .debug_line    0x00000000       0x1d ..\obj\ipcp.o
 .debug_str     0x00000000      0x14a ..\obj\ipcp.o
 .comment       0x00000000       0x71 ..\obj\ipcp.o
 .ARM.attributes
                0x00000000       0x37 ..\obj\ipcp.o
 .text          0x00000000        0x0 ..\obj\stm32f4xx_tim.o
 .data          0x00000000        0x0 ..\obj\stm32f4xx_tim.o
 .bss           0x00000000        0x0 ..\obj\stm32f4xx_tim.o
 .text.TIM_DeInit
                0x00000000      0x1bc ..\obj\stm32f4xx_tim.o
 .text.TIM_PrescalerConfig
                0x00000000       0x28 ..\obj\stm32f4xx_tim.o
 .text.TIM_CounterModeConfig
                0x00000000       0x38 ..\obj\stm32f4xx_tim.o
 .text.TIM_SetAutoreload
                0x00000000       0x1c ..\obj\stm32f4xx_tim.o
 .text.TIM_GetCounter
                0x00000000       0x18 ..\obj\stm32f4xx_tim.o
 .text.TIM_GetPrescaler
                0x00000000       0x1c ..\obj\stm32f4xx_tim.o
 .text.TIM_UpdateDisableConfig
                0x00000000       0x40 ..\obj\stm32f4xx_tim.o
 .text.TIM_UpdateRequestConfig
                0x00000000       0x40 ..\obj\stm32f4xx_tim.o
 .text.TIM_SelectOnePulseMode
                0x00000000       0x38 ..\obj\stm32f4xx_tim.o
 .text.TIM_SetClockDivision
                0x00000000       0x38 ..\obj\stm32f4xx_tim.o
 .text.TIM_OC2Init
                0x00000000      0x110 ..\obj\stm32f4xx_tim.o
 .text.TIM_OC3Init
                0x00000000      0x10c ..\obj\stm32f4xx_tim.o
 .text.TIM_OC4Init
                0x00000000       0xcc ..\obj\stm32f4xx_tim.o
 .text.TIM_SelectOCxM
                0x00000000       0xb0 ..\obj\stm32f4xx_tim.o
 .text.TIM_SetCompare1
                0x00000000       0x1c ..\obj\stm32f4xx_tim.o
 .text.TIM_SetCompare2
                0x00000000       0x1c ..\obj\stm32f4xx_tim.o
 .text.TIM_SetCompare3
                0x00000000       0x1c ..\obj\stm32f4xx_tim.o
 .text.TIM_SetCompare4
                0x00000000       0x1c ..\obj\stm32f4xx_tim.o
 .text.TIM_ForcedOC1Config
                0x00000000       0x38 ..\obj\stm32f4xx_tim.o
 .text.TIM_ForcedOC2Config
                0x00000000       0x3c ..\obj\stm32f4xx_tim.o
 .text.TIM_ForcedOC3Config
                0x00000000       0x38 ..\obj\stm32f4xx_tim.o
 .text.TIM_ForcedOC4Config
                0x00000000       0x3c ..\obj\stm32f4xx_tim.o
 .text.TIM_OC2PreloadConfig
                0x00000000       0x3c ..\obj\stm32f4xx_tim.o
 .text.TIM_OC3PreloadConfig
                0x00000000       0x38 ..\obj\stm32f4xx_tim.o
 .text.TIM_OC4PreloadConfig
                0x00000000       0x3c ..\obj\stm32f4xx_tim.o
 .text.TIM_OC1FastConfig
                0x00000000       0x38 ..\obj\stm32f4xx_tim.o
 .text.TIM_OC2FastConfig
                0x00000000       0x3c ..\obj\stm32f4xx_tim.o
 .text.TIM_OC3FastConfig
                0x00000000       0x38 ..\obj\stm32f4xx_tim.o
 .text.TIM_OC4FastConfig
                0x00000000       0x3c ..\obj\stm32f4xx_tim.o
 .text.TIM_ClearOC1Ref
                0x00000000       0x38 ..\obj\stm32f4xx_tim.o
 .text.TIM_ClearOC2Ref
                0x00000000       0x3c ..\obj\stm32f4xx_tim.o
 .text.TIM_ClearOC3Ref
                0x00000000       0x38 ..\obj\stm32f4xx_tim.o
 .text.TIM_ClearOC4Ref
                0x00000000       0x3c ..\obj\stm32f4xx_tim.o
 .text.TIM_OC1PolarityConfig
                0x00000000       0x38 ..\obj\stm32f4xx_tim.o
 .text.TIM_OC1NPolarityConfig
                0x00000000       0x38 ..\obj\stm32f4xx_tim.o
 .text.TIM_OC2PolarityConfig
                0x00000000       0x3c ..\obj\stm32f4xx_tim.o
 .text.TIM_OC2NPolarityConfig
                0x00000000       0x3c ..\obj\stm32f4xx_tim.o
 .text.TIM_OC3PolarityConfig
                0x00000000       0x3c ..\obj\stm32f4xx_tim.o
 .text.TIM_OC3NPolarityConfig
                0x00000000       0x3c ..\obj\stm32f4xx_tim.o
 .text.TIM_OC4PolarityConfig
                0x00000000       0x3c ..\obj\stm32f4xx_tim.o
 .text.TIM_CCxCmd
                0x00000000       0x54 ..\obj\stm32f4xx_tim.o
 .text.TIM_CCxNCmd
                0x00000000       0x54 ..\obj\stm32f4xx_tim.o
 .text.TIM_ICInit
                0x00000000       0xa8 ..\obj\stm32f4xx_tim.o
 .text.TIM_ICStructInit
                0x00000000       0x30 ..\obj\stm32f4xx_tim.o
 .text.TIM_PWMIConfig
                0x00000000       0xb8 ..\obj\stm32f4xx_tim.o
 .text.TIM_GetCapture1
                0x00000000       0x18 ..\obj\stm32f4xx_tim.o
 .text.TIM_GetCapture2
                0x00000000       0x18 ..\obj\stm32f4xx_tim.o
 .text.TIM_GetCapture3
                0x00000000       0x18 ..\obj\stm32f4xx_tim.o
 .text.TIM_GetCapture4
                0x00000000       0x18 ..\obj\stm32f4xx_tim.o
 .text.TIM_SetIC1Prescaler
                0x00000000       0x38 ..\obj\stm32f4xx_tim.o
 .text.TIM_SetIC2Prescaler
                0x00000000       0x3c ..\obj\stm32f4xx_tim.o
 .text.TIM_SetIC3Prescaler
                0x00000000       0x38 ..\obj\stm32f4xx_tim.o
 .text.TIM_SetIC4Prescaler
                0x00000000       0x3c ..\obj\stm32f4xx_tim.o
 .text.TIM_BDTRConfig
                0x00000000       0x50 ..\obj\stm32f4xx_tim.o
 .text.TIM_BDTRStructInit
                0x00000000       0x3c ..\obj\stm32f4xx_tim.o
 .text.TIM_SelectCOM
                0x00000000       0x40 ..\obj\stm32f4xx_tim.o
 .text.TIM_CCPreloadControl
                0x00000000       0x40 ..\obj\stm32f4xx_tim.o
 .text.TIM_ITConfig
                0x00000000       0x48 ..\obj\stm32f4xx_tim.o
 .text.TIM_GenerateEvent
                0x00000000       0x1c ..\obj\stm32f4xx_tim.o
 .text.TIM_GetFlagStatus
                0x00000000       0x38 ..\obj\stm32f4xx_tim.o
 .text.TIM_ClearFlag
                0x00000000       0x20 ..\obj\stm32f4xx_tim.o
 .text.TIM_GetITStatus
                0x00000000       0x54 ..\obj\stm32f4xx_tim.o
 .text.TIM_ClearITPendingBit
                0x00000000       0x20 ..\obj\stm32f4xx_tim.o
 .text.TIM_DMAConfig
                0x00000000       0x28 ..\obj\stm32f4xx_tim.o
 .text.TIM_DMACmd
                0x00000000       0x48 ..\obj\stm32f4xx_tim.o
 .text.TIM_SelectCCDMA
                0x00000000       0x40 ..\obj\stm32f4xx_tim.o
 .text.TIM_InternalClockConfig
                0x00000000       0x24 ..\obj\stm32f4xx_tim.o
 .text.TIM_ITRxExternalClockConfig
                0x00000000       0x2c ..\obj\stm32f4xx_tim.o
 .text.TIM_TIxExternalClockConfig
                0x00000000       0x60 ..\obj\stm32f4xx_tim.o
 .text.TIM_ETRClockMode1Config
                0x00000000       0x5c ..\obj\stm32f4xx_tim.o
 .text.TIM_EncoderInterfaceConfig
                0x00000000       0x98 ..\obj\stm32f4xx_tim.o
 .text.TIM_SelectHallSensor
                0x00000000       0x40 ..\obj\stm32f4xx_tim.o
 .text.TIM_RemapConfig
                0x00000000       0x20 ..\obj\stm32f4xx_tim.o
 .text.TI1_Config
                0x00000000       0x84 ..\obj\stm32f4xx_tim.o
 .text.TI2_Config
                0x00000000       0x98 ..\obj\stm32f4xx_tim.o
 .text.TI3_Config
                0x00000000       0x90 ..\obj\stm32f4xx_tim.o
 .text.TI4_Config
                0x00000000       0x9c ..\obj\stm32f4xx_tim.o
 .text          0x00000000        0x0 ..\obj\tcp_out.o
 .data          0x00000000        0x0 ..\obj\tcp_out.o
 .bss           0x00000000        0x0 ..\obj\tcp_out.o
 .text          0x00000000        0x0 ..\obj\raw.o
 .data          0x00000000        0x0 ..\obj\raw.o
 .text.raw_bind
                0x00000000       0x2c ..\obj\raw.o
 .text.raw_connect
                0x00000000       0x2c ..\obj\raw.o
 .text.raw_recv
                0x00000000       0x24 ..\obj\raw.o
 .text.raw_sendto
                0x00000000       0xd4 ..\obj\raw.o
 .text.raw_send
                0x00000000       0x24 ..\obj\raw.o
 .text.raw_remove
                0x00000000       0x60 ..\obj\raw.o
 .text.raw_new  0x00000000       0x4c ..\obj\raw.o
 .text          0x00000000        0x0 c:/program files/gnu tools arm embedded/4.9 2015q2/bin/../lib/gcc/arm-none-eabi/4.9.3/../../../../arm-none-eabi/lib/armv7e-m/softfp\libg.a(lib_a-memcmp.o)
 .data          0x00000000        0x0 c:/program files/gnu tools arm embedded/4.9 2015q2/bin/../lib/gcc/arm-none-eabi/4.9.3/../../../../arm-none-eabi/lib/armv7e-m/softfp\libg.a(lib_a-memcmp.o)
 .bss           0x00000000        0x0 c:/program files/gnu tools arm embedded/4.9 2015q2/bin/../lib/gcc/arm-none-eabi/4.9.3/../../../../arm-none-eabi/lib/armv7e-m/softfp\libg.a(lib_a-memcmp.o)
 .data          0x00000000        0x0 c:/program files/gnu tools arm embedded/4.9 2015q2/bin/../lib/gcc/arm-none-eabi/4.9.3/../../../../arm-none-eabi/lib/armv7e-m/softfp\libg.a(lib_a-memcpy.o)
 .bss           0x00000000        0x0 c:/program files/gnu tools arm embedded/4.9 2015q2/bin/../lib/gcc/arm-none-eabi/4.9.3/../../../../arm-none-eabi/lib/armv7e-m/softfp\libg.a(lib_a-memcpy.o)
 .text          0x00000000        0x0 c:/program files/gnu tools arm embedded/4.9 2015q2/bin/../lib/gcc/arm-none-eabi/4.9.3/../../../../arm-none-eabi/lib/armv7e-m/softfp\libg.a(lib_a-memset.o)
 .data          0x00000000        0x0 c:/program files/gnu tools arm embedded/4.9 2015q2/bin/../lib/gcc/arm-none-eabi/4.9.3/../../../../arm-none-eabi/lib/armv7e-m/softfp\libg.a(lib_a-memset.o)
 .bss           0x00000000        0x0 c:/program files/gnu tools arm embedded/4.9 2015q2/bin/../lib/gcc/arm-none-eabi/4.9.3/../../../../arm-none-eabi/lib/armv7e-m/softfp\libg.a(lib_a-memset.o)
 .text          0x00000000        0x0 c:/program files/gnu tools arm embedded/4.9 2015q2/bin/../lib/gcc/arm-none-eabi/4.9.3/../../../../arm-none-eabi/lib/armv7e-m/softfp\libg.a(lib_a-printf.o)
 .data          0x00000000        0x0 c:/program files/gnu tools arm embedded/4.9 2015q2/bin/../lib/gcc/arm-none-eabi/4.9.3/../../../../arm-none-eabi/lib/armv7e-m/softfp\libg.a(lib_a-printf.o)
 .bss           0x00000000        0x0 c:/program files/gnu tools arm embedded/4.9 2015q2/bin/../lib/gcc/arm-none-eabi/4.9.3/../../../../arm-none-eabi/lib/armv7e-m/softfp\libg.a(lib_a-printf.o)
 .text._printf_r
                0x00000000       0x20 c:/program files/gnu tools arm embedded/4.9 2015q2/bin/../lib/gcc/arm-none-eabi/4.9.3/../../../../arm-none-eabi/lib/armv7e-m/softfp\libg.a(lib_a-printf.o)
 .text          0x00000000        0x0 c:/program files/gnu tools arm embedded/4.9 2015q2/bin/../lib/gcc/arm-none-eabi/4.9.3/../../../../arm-none-eabi/lib/armv7e-m/softfp\libg.a(lib_a-snprintf.o)
 .data          0x00000000        0x0 c:/program files/gnu tools arm embedded/4.9 2015q2/bin/../lib/gcc/arm-none-eabi/4.9.3/../../../../arm-none-eabi/lib/armv7e-m/softfp\libg.a(lib_a-snprintf.o)
 .bss           0x00000000        0x0 c:/program files/gnu tools arm embedded/4.9 2015q2/bin/../lib/gcc/arm-none-eabi/4.9.3/../../../../arm-none-eabi/lib/armv7e-m/softfp\libg.a(lib_a-snprintf.o)
 .text._snprintf_r
                0x00000000       0x90 c:/program files/gnu tools arm embedded/4.9 2015q2/bin/../lib/gcc/arm-none-eabi/4.9.3/../../../../arm-none-eabi/lib/armv7e-m/softfp\libg.a(lib_a-snprintf.o)
 .text          0x00000000        0x0 c:/program files/gnu tools arm embedded/4.9 2015q2/bin/../lib/gcc/arm-none-eabi/4.9.3/../../../../arm-none-eabi/lib/armv7e-m/softfp\libg.a(lib_a-strchr.o)
 .data          0x00000000        0x0 c:/program files/gnu tools arm embedded/4.9 2015q2/bin/../lib/gcc/arm-none-eabi/4.9.3/../../../../arm-none-eabi/lib/armv7e-m/softfp\libg.a(lib_a-strchr.o)
 .bss           0x00000000        0x0 c:/program files/gnu tools arm embedded/4.9 2015q2/bin/../lib/gcc/arm-none-eabi/4.9.3/../../../../arm-none-eabi/lib/armv7e-m/softfp\libg.a(lib_a-strchr.o)
 .text.strchr   0x00000000       0xcc c:/program files/gnu tools arm embedded/4.9 2015q2/bin/../lib/gcc/arm-none-eabi/4.9.3/../../../../arm-none-eabi/lib/armv7e-m/softfp\libg.a(lib_a-strchr.o)
 .debug_frame   0x00000000       0x4c c:/program files/gnu tools arm embedded/4.9 2015q2/bin/../lib/gcc/arm-none-eabi/4.9.3/../../../../arm-none-eabi/lib/armv7e-m/softfp\libg.a(lib_a-strchr.o)
 .ARM.attributes
                0x00000000       0x32 c:/program files/gnu tools arm embedded/4.9 2015q2/bin/../lib/gcc/arm-none-eabi/4.9.3/../../../../arm-none-eabi/lib/armv7e-m/softfp\libg.a(lib_a-strchr.o)
 .data          0x00000000        0x0 c:/program files/gnu tools arm embedded/4.9 2015q2/bin/../lib/gcc/arm-none-eabi/4.9.3/../../../../arm-none-eabi/lib/armv7e-m/softfp\libg.a(lib_a-strcmp.o)
 .bss           0x00000000        0x0 c:/program files/gnu tools arm embedded/4.9 2015q2/bin/../lib/gcc/arm-none-eabi/4.9.3/../../../../arm-none-eabi/lib/armv7e-m/softfp\libg.a(lib_a-strcmp.o)
 .eh_frame      0x00000000       0x70 c:/program files/gnu tools arm embedded/4.9 2015q2/bin/../lib/gcc/arm-none-eabi/4.9.3/../../../../arm-none-eabi/lib/armv7e-m/softfp\libg.a(lib_a-strcmp.o)
 .text          0x00000000        0x0 c:/program files/gnu tools arm embedded/4.9 2015q2/bin/../lib/gcc/arm-none-eabi/4.9.3/../../../../arm-none-eabi/lib/armv7e-m/softfp\libg.a(lib_a-strlen.o)
 .data          0x00000000        0x0 c:/program files/gnu tools arm embedded/4.9 2015q2/bin/../lib/gcc/arm-none-eabi/4.9.3/../../../../arm-none-eabi/lib/armv7e-m/softfp\libg.a(lib_a-strlen.o)
 .bss           0x00000000        0x0 c:/program files/gnu tools arm embedded/4.9 2015q2/bin/../lib/gcc/arm-none-eabi/4.9.3/../../../../arm-none-eabi/lib/armv7e-m/softfp\libg.a(lib_a-strlen.o)
 .text          0x00000000        0x0 c:/program files/gnu tools arm embedded/4.9 2015q2/bin/../lib/gcc/arm-none-eabi/4.9.3/../../../../arm-none-eabi/lib/armv7e-m/softfp\libg.a(lib_a-strncmp.o)
 .data          0x00000000        0x0 c:/program files/gnu tools arm embedded/4.9 2015q2/bin/../lib/gcc/arm-none-eabi/4.9.3/../../../../arm-none-eabi/lib/armv7e-m/softfp\libg.a(lib_a-strncmp.o)
 .bss           0x00000000        0x0 c:/program files/gnu tools arm embedded/4.9 2015q2/bin/../lib/gcc/arm-none-eabi/4.9.3/../../../../arm-none-eabi/lib/armv7e-m/softfp\libg.a(lib_a-strncmp.o)
 .text.strncmp  0x00000000       0x98 c:/program files/gnu tools arm embedded/4.9 2015q2/bin/../lib/gcc/arm-none-eabi/4.9.3/../../../../arm-none-eabi/lib/armv7e-m/softfp\libg.a(lib_a-strncmp.o)
 .debug_frame   0x00000000       0x54 c:/program files/gnu tools arm embedded/4.9 2015q2/bin/../lib/gcc/arm-none-eabi/4.9.3/../../../../arm-none-eabi/lib/armv7e-m/softfp\libg.a(lib_a-strncmp.o)
 .ARM.attributes
                0x00000000       0x32 c:/program files/gnu tools arm embedded/4.9 2015q2/bin/../lib/gcc/arm-none-eabi/4.9.3/../../../../arm-none-eabi/lib/armv7e-m/softfp\libg.a(lib_a-strncmp.o)
 .text          0x00000000        0x0 c:/program files/gnu tools arm embedded/4.9 2015q2/bin/../lib/gcc/arm-none-eabi/4.9.3/../../../../arm-none-eabi/lib/armv7e-m/softfp\libg.a(lib_a-svfprintf.o)
 .data          0x00000000        0x0 c:/program files/gnu tools arm embedded/4.9 2015q2/bin/../lib/gcc/arm-none-eabi/4.9.3/../../../../arm-none-eabi/lib/armv7e-m/softfp\libg.a(lib_a-svfprintf.o)
 .bss           0x00000000        0x0 c:/program files/gnu tools arm embedded/4.9 2015q2/bin/../lib/gcc/arm-none-eabi/4.9.3/../../../../arm-none-eabi/lib/armv7e-m/softfp\libg.a(lib_a-svfprintf.o)
 .text          0x00000000        0x0 c:/program files/gnu tools arm embedded/4.9 2015q2/bin/../lib/gcc/arm-none-eabi/4.9.3/../../../../arm-none-eabi/lib/armv7e-m/softfp\libg.a(lib_a-vfprintf.o)
 .data          0x00000000        0x0 c:/program files/gnu tools arm embedded/4.9 2015q2/bin/../lib/gcc/arm-none-eabi/4.9.3/../../../../arm-none-eabi/lib/armv7e-m/softfp\libg.a(lib_a-vfprintf.o)
 .bss           0x00000000        0x0 c:/program files/gnu tools arm embedded/4.9 2015q2/bin/../lib/gcc/arm-none-eabi/4.9.3/../../../../arm-none-eabi/lib/armv7e-m/softfp\libg.a(lib_a-vfprintf.o)
 .text.vfprintf
                0x00000000       0x18 c:/program files/gnu tools arm embedded/4.9 2015q2/bin/../lib/gcc/arm-none-eabi/4.9.3/../../../../arm-none-eabi/lib/armv7e-m/softfp\libg.a(lib_a-vfprintf.o)
 .text          0x00000000        0x0 c:/program files/gnu tools arm embedded/4.9 2015q2/bin/../lib/gcc/arm-none-eabi/4.9.3/../../../../arm-none-eabi/lib/armv7e-m/softfp\libg.a(lib_a-vprintf.o)
 .data          0x00000000        0x0 c:/program files/gnu tools arm embedded/4.9 2015q2/bin/../lib/gcc/arm-none-eabi/4.9.3/../../../../arm-none-eabi/lib/armv7e-m/softfp\libg.a(lib_a-vprintf.o)
 .bss           0x00000000        0x0 c:/program files/gnu tools arm embedded/4.9 2015q2/bin/../lib/gcc/arm-none-eabi/4.9.3/../../../../arm-none-eabi/lib/armv7e-m/softfp\libg.a(lib_a-vprintf.o)
 .text._vprintf_r
                0x00000000        0xc c:/program files/gnu tools arm embedded/4.9 2015q2/bin/../lib/gcc/arm-none-eabi/4.9.3/../../../../arm-none-eabi/lib/armv7e-m/softfp\libg.a(lib_a-vprintf.o)
 .text          0x00000000        0x0 c:/program files/gnu tools arm embedded/4.9 2015q2/bin/../lib/gcc/arm-none-eabi/4.9.3/../../../../arm-none-eabi/lib/armv7e-m/softfp\libg.a(lib_a-wsetup.o)
 .data          0x00000000        0x0 c:/program files/gnu tools arm embedded/4.9 2015q2/bin/../lib/gcc/arm-none-eabi/4.9.3/../../../../arm-none-eabi/lib/armv7e-m/softfp\libg.a(lib_a-wsetup.o)
 .bss           0x00000000        0x0 c:/program files/gnu tools arm embedded/4.9 2015q2/bin/../lib/gcc/arm-none-eabi/4.9.3/../../../../arm-none-eabi/lib/armv7e-m/softfp\libg.a(lib_a-wsetup.o)
 .text          0x00000000        0x0 c:/program files/gnu tools arm embedded/4.9 2015q2/bin/../lib/gcc/arm-none-eabi/4.9.3/../../../../arm-none-eabi/lib/armv7e-m/softfp\libg.a(lib_a-dtoa.o)
 .data          0x00000000        0x0 c:/program files/gnu tools arm embedded/4.9 2015q2/bin/../lib/gcc/arm-none-eabi/4.9.3/../../../../arm-none-eabi/lib/armv7e-m/softfp\libg.a(lib_a-dtoa.o)
 .bss           0x00000000        0x0 c:/program files/gnu tools arm embedded/4.9 2015q2/bin/../lib/gcc/arm-none-eabi/4.9.3/../../../../arm-none-eabi/lib/armv7e-m/softfp\libg.a(lib_a-dtoa.o)
 .text          0x00000000        0x0 c:/program files/gnu tools arm embedded/4.9 2015q2/bin/../lib/gcc/arm-none-eabi/4.9.3/../../../../arm-none-eabi/lib/armv7e-m/softfp\libg.a(lib_a-fflush.o)
 .data          0x00000000        0x0 c:/program files/gnu tools arm embedded/4.9 2015q2/bin/../lib/gcc/arm-none-eabi/4.9.3/../../../../arm-none-eabi/lib/armv7e-m/softfp\libg.a(lib_a-fflush.o)
 .bss           0x00000000        0x0 c:/program files/gnu tools arm embedded/4.9 2015q2/bin/../lib/gcc/arm-none-eabi/4.9.3/../../../../arm-none-eabi/lib/armv7e-m/softfp\libg.a(lib_a-fflush.o)
 .text.fflush   0x00000000       0x24 c:/program files/gnu tools arm embedded/4.9 2015q2/bin/../lib/gcc/arm-none-eabi/4.9.3/../../../../arm-none-eabi/lib/armv7e-m/softfp\libg.a(lib_a-fflush.o)
 .text          0x00000000        0x0 c:/program files/gnu tools arm embedded/4.9 2015q2/bin/../lib/gcc/arm-none-eabi/4.9.3/../../../../arm-none-eabi/lib/armv7e-m/softfp\libg.a(lib_a-findfp.o)
 .data          0x00000000        0x0 c:/program files/gnu tools arm embedded/4.9 2015q2/bin/../lib/gcc/arm-none-eabi/4.9.3/../../../../arm-none-eabi/lib/armv7e-m/softfp\libg.a(lib_a-findfp.o)
 .bss           0x00000000        0x0 c:/program files/gnu tools arm embedded/4.9 2015q2/bin/../lib/gcc/arm-none-eabi/4.9.3/../../../../arm-none-eabi/lib/armv7e-m/softfp\libg.a(lib_a-findfp.o)
 .text.__fp_lock
                0x00000000        0x4 c:/program files/gnu tools arm embedded/4.9 2015q2/bin/../lib/gcc/arm-none-eabi/4.9.3/../../../../arm-none-eabi/lib/armv7e-m/softfp\libg.a(lib_a-findfp.o)
 .text.__fp_unlock
                0x00000000        0x4 c:/program files/gnu tools arm embedded/4.9 2015q2/bin/../lib/gcc/arm-none-eabi/4.9.3/../../../../arm-none-eabi/lib/armv7e-m/softfp\libg.a(lib_a-findfp.o)
 .text.__sfmoreglue
                0x00000000       0x30 c:/program files/gnu tools arm embedded/4.9 2015q2/bin/../lib/gcc/arm-none-eabi/4.9.3/../../../../arm-none-eabi/lib/armv7e-m/softfp\libg.a(lib_a-findfp.o)
 .text.__sfp    0x00000000       0x88 c:/program files/gnu tools arm embedded/4.9 2015q2/bin/../lib/gcc/arm-none-eabi/4.9.3/../../../../arm-none-eabi/lib/armv7e-m/softfp\libg.a(lib_a-findfp.o)
 .text._cleanup
                0x00000000       0x14 c:/program files/gnu tools arm embedded/4.9 2015q2/bin/../lib/gcc/arm-none-eabi/4.9.3/../../../../arm-none-eabi/lib/armv7e-m/softfp\libg.a(lib_a-findfp.o)
 .text.__sinit_lock_acquire
                0x00000000        0x4 c:/program files/gnu tools arm embedded/4.9 2015q2/bin/../lib/gcc/arm-none-eabi/4.9.3/../../../../arm-none-eabi/lib/armv7e-m/softfp\libg.a(lib_a-findfp.o)
 .text.__sinit_lock_release
                0x00000000        0x4 c:/program files/gnu tools arm embedded/4.9 2015q2/bin/../lib/gcc/arm-none-eabi/4.9.3/../../../../arm-none-eabi/lib/armv7e-m/softfp\libg.a(lib_a-findfp.o)
 .text.__fp_lock_all
                0x00000000       0x14 c:/program files/gnu tools arm embedded/4.9 2015q2/bin/../lib/gcc/arm-none-eabi/4.9.3/../../../../arm-none-eabi/lib/armv7e-m/softfp\libg.a(lib_a-findfp.o)
 .text.__fp_unlock_all
                0x00000000       0x14 c:/program files/gnu tools arm embedded/4.9 2015q2/bin/../lib/gcc/arm-none-eabi/4.9.3/../../../../arm-none-eabi/lib/armv7e-m/softfp\libg.a(lib_a-findfp.o)
 .text          0x00000000        0x0 c:/program files/gnu tools arm embedded/4.9 2015q2/bin/../lib/gcc/arm-none-eabi/4.9.3/../../../../arm-none-eabi/lib/armv7e-m/softfp\libg.a(lib_a-freer.o)
 .data          0x00000000        0x0 c:/program files/gnu tools arm embedded/4.9 2015q2/bin/../lib/gcc/arm-none-eabi/4.9.3/../../../../arm-none-eabi/lib/armv7e-m/softfp\libg.a(lib_a-freer.o)
 .bss           0x00000000        0x0 c:/program files/gnu tools arm embedded/4.9 2015q2/bin/../lib/gcc/arm-none-eabi/4.9.3/../../../../arm-none-eabi/lib/armv7e-m/softfp\libg.a(lib_a-freer.o)
 .text          0x00000000        0x0 c:/program files/gnu tools arm embedded/4.9 2015q2/bin/../lib/gcc/arm-none-eabi/4.9.3/../../../../arm-none-eabi/lib/armv7e-m/softfp\libg.a(lib_a-fwalk.o)
 .data          0x00000000        0x0 c:/program files/gnu tools arm embedded/4.9 2015q2/bin/../lib/gcc/arm-none-eabi/4.9.3/../../../../arm-none-eabi/lib/armv7e-m/softfp\libg.a(lib_a-fwalk.o)
 .bss           0x00000000        0x0 c:/program files/gnu tools arm embedded/4.9 2015q2/bin/../lib/gcc/arm-none-eabi/4.9.3/../../../../arm-none-eabi/lib/armv7e-m/softfp\libg.a(lib_a-fwalk.o)
 .text._fwalk   0x00000000       0x4c c:/program files/gnu tools arm embedded/4.9 2015q2/bin/../lib/gcc/arm-none-eabi/4.9.3/../../../../arm-none-eabi/lib/armv7e-m/softfp\libg.a(lib_a-fwalk.o)
 .text          0x00000000        0x0 c:/program files/gnu tools arm embedded/4.9 2015q2/bin/../lib/gcc/arm-none-eabi/4.9.3/../../../../arm-none-eabi/lib/armv7e-m/softfp\libg.a(lib_a-impure.o)
 .data          0x00000000        0x0 c:/program files/gnu tools arm embedded/4.9 2015q2/bin/../lib/gcc/arm-none-eabi/4.9.3/../../../../arm-none-eabi/lib/armv7e-m/softfp\libg.a(lib_a-impure.o)
 .bss           0x00000000        0x0 c:/program files/gnu tools arm embedded/4.9 2015q2/bin/../lib/gcc/arm-none-eabi/4.9.3/../../../../arm-none-eabi/lib/armv7e-m/softfp\libg.a(lib_a-impure.o)
 .rodata._global_impure_ptr
                0x00000000        0x4 c:/program files/gnu tools arm embedded/4.9 2015q2/bin/../lib/gcc/arm-none-eabi/4.9.3/../../../../arm-none-eabi/lib/armv7e-m/softfp\libg.a(lib_a-impure.o)
 .text          0x00000000        0x0 c:/program files/gnu tools arm embedded/4.9 2015q2/bin/../lib/gcc/arm-none-eabi/4.9.3/../../../../arm-none-eabi/lib/armv7e-m/softfp\libg.a(lib_a-locale.o)
 .data          0x00000000        0x0 c:/program files/gnu tools arm embedded/4.9 2015q2/bin/../lib/gcc/arm-none-eabi/4.9.3/../../../../arm-none-eabi/lib/armv7e-m/softfp\libg.a(lib_a-locale.o)
 .bss           0x00000000        0x0 c:/program files/gnu tools arm embedded/4.9 2015q2/bin/../lib/gcc/arm-none-eabi/4.9.3/../../../../arm-none-eabi/lib/armv7e-m/softfp\libg.a(lib_a-locale.o)
 .text._setlocale_r
                0x00000000       0x44 c:/program files/gnu tools arm embedded/4.9 2015q2/bin/../lib/gcc/arm-none-eabi/4.9.3/../../../../arm-none-eabi/lib/armv7e-m/softfp\libg.a(lib_a-locale.o)
 .text.__locale_msgcharset
                0x00000000        0x8 c:/program files/gnu tools arm embedded/4.9 2015q2/bin/../lib/gcc/arm-none-eabi/4.9.3/../../../../arm-none-eabi/lib/armv7e-m/softfp\libg.a(lib_a-locale.o)
 .text.__locale_cjk_lang
                0x00000000        0x4 c:/program files/gnu tools arm embedded/4.9 2015q2/bin/../lib/gcc/arm-none-eabi/4.9.3/../../../../arm-none-eabi/lib/armv7e-m/softfp\libg.a(lib_a-locale.o)
 .text.setlocale
                0x00000000       0x10 c:/program files/gnu tools arm embedded/4.9 2015q2/bin/../lib/gcc/arm-none-eabi/4.9.3/../../../../arm-none-eabi/lib/armv7e-m/softfp\libg.a(lib_a-locale.o)
 .text.localeconv
                0x00000000        0x8 c:/program files/gnu tools arm embedded/4.9 2015q2/bin/../lib/gcc/arm-none-eabi/4.9.3/../../../../arm-none-eabi/lib/armv7e-m/softfp\libg.a(lib_a-locale.o)
 .data.lc_message_charset
                0x00000000       0x20 c:/program files/gnu tools arm embedded/4.9 2015q2/bin/../lib/gcc/arm-none-eabi/4.9.3/../../../../arm-none-eabi/lib/armv7e-m/softfp\libg.a(lib_a-locale.o)
 .bss._PathLocale
                0x00000000        0x4 c:/program files/gnu tools arm embedded/4.9 2015q2/bin/../lib/gcc/arm-none-eabi/4.9.3/../../../../arm-none-eabi/lib/armv7e-m/softfp\libg.a(lib_a-locale.o)
 .bss.__nlocale_changed
                0x00000000        0x4 c:/program files/gnu tools arm embedded/4.9 2015q2/bin/../lib/gcc/arm-none-eabi/4.9.3/../../../../arm-none-eabi/lib/armv7e-m/softfp\libg.a(lib_a-locale.o)
 .bss.__mlocale_changed
                0x00000000        0x4 c:/program files/gnu tools arm embedded/4.9 2015q2/bin/../lib/gcc/arm-none-eabi/4.9.3/../../../../arm-none-eabi/lib/armv7e-m/softfp\libg.a(lib_a-locale.o)
 .text          0x00000000        0x0 c:/program files/gnu tools arm embedded/4.9 2015q2/bin/../lib/gcc/arm-none-eabi/4.9.3/../../../../arm-none-eabi/lib/armv7e-m/softfp\libg.a(lib_a-makebuf.o)
 .data          0x00000000        0x0 c:/program files/gnu tools arm embedded/4.9 2015q2/bin/../lib/gcc/arm-none-eabi/4.9.3/../../../../arm-none-eabi/lib/armv7e-m/softfp\libg.a(lib_a-makebuf.o)
 .bss           0x00000000        0x0 c:/program files/gnu tools arm embedded/4.9 2015q2/bin/../lib/gcc/arm-none-eabi/4.9.3/../../../../arm-none-eabi/lib/armv7e-m/softfp\libg.a(lib_a-makebuf.o)
 .text          0x00000000        0x0 c:/program files/gnu tools arm embedded/4.9 2015q2/bin/../lib/gcc/arm-none-eabi/4.9.3/../../../../arm-none-eabi/lib/armv7e-m/softfp\libg.a(lib_a-mallocr.o)
 .data          0x00000000        0x0 c:/program files/gnu tools arm embedded/4.9 2015q2/bin/../lib/gcc/arm-none-eabi/4.9.3/../../../../arm-none-eabi/lib/armv7e-m/softfp\libg.a(lib_a-mallocr.o)
 .bss           0x00000000        0x0 c:/program files/gnu tools arm embedded/4.9 2015q2/bin/../lib/gcc/arm-none-eabi/4.9.3/../../../../arm-none-eabi/lib/armv7e-m/softfp\libg.a(lib_a-mallocr.o)
 .text          0x00000000        0x0 c:/program files/gnu tools arm embedded/4.9 2015q2/bin/../lib/gcc/arm-none-eabi/4.9.3/../../../../arm-none-eabi/lib/armv7e-m/softfp\libg.a(lib_a-memchr.o)
 .data          0x00000000        0x0 c:/program files/gnu tools arm embedded/4.9 2015q2/bin/../lib/gcc/arm-none-eabi/4.9.3/../../../../arm-none-eabi/lib/armv7e-m/softfp\libg.a(lib_a-memchr.o)
 .bss           0x00000000        0x0 c:/program files/gnu tools arm embedded/4.9 2015q2/bin/../lib/gcc/arm-none-eabi/4.9.3/../../../../arm-none-eabi/lib/armv7e-m/softfp\libg.a(lib_a-memchr.o)
 .text          0x00000000        0x0 c:/program files/gnu tools arm embedded/4.9 2015q2/bin/../lib/gcc/arm-none-eabi/4.9.3/../../../../arm-none-eabi/lib/armv7e-m/softfp\libg.a(lib_a-mlock.o)
 .data          0x00000000        0x0 c:/program files/gnu tools arm embedded/4.9 2015q2/bin/../lib/gcc/arm-none-eabi/4.9.3/../../../../arm-none-eabi/lib/armv7e-m/softfp\libg.a(lib_a-mlock.o)
 .bss           0x00000000        0x0 c:/program files/gnu tools arm embedded/4.9 2015q2/bin/../lib/gcc/arm-none-eabi/4.9.3/../../../../arm-none-eabi/lib/armv7e-m/softfp\libg.a(lib_a-mlock.o)
 .text          0x00000000        0x0 c:/program files/gnu tools arm embedded/4.9 2015q2/bin/../lib/gcc/arm-none-eabi/4.9.3/../../../../arm-none-eabi/lib/armv7e-m/softfp\libg.a(lib_a-mprec.o)
 .data          0x00000000        0x0 c:/program files/gnu tools arm embedded/4.9 2015q2/bin/../lib/gcc/arm-none-eabi/4.9.3/../../../../arm-none-eabi/lib/armv7e-m/softfp\libg.a(lib_a-mprec.o)
 .bss           0x00000000        0x0 c:/program files/gnu tools arm embedded/4.9 2015q2/bin/../lib/gcc/arm-none-eabi/4.9.3/../../../../arm-none-eabi/lib/armv7e-m/softfp\libg.a(lib_a-mprec.o)
 .text.__s2b    0x00000000       0x98 c:/program files/gnu tools arm embedded/4.9 2015q2/bin/../lib/gcc/arm-none-eabi/4.9.3/../../../../arm-none-eabi/lib/armv7e-m/softfp\libg.a(lib_a-mprec.o)
 .text.__ulp    0x00000000       0x40 c:/program files/gnu tools arm embedded/4.9 2015q2/bin/../lib/gcc/arm-none-eabi/4.9.3/../../../../arm-none-eabi/lib/armv7e-m/softfp\libg.a(lib_a-mprec.o)
 .text.__b2d    0x00000000       0xc4 c:/program files/gnu tools arm embedded/4.9 2015q2/bin/../lib/gcc/arm-none-eabi/4.9.3/../../../../arm-none-eabi/lib/armv7e-m/softfp\libg.a(lib_a-mprec.o)
 .text.__ratio  0x00000000       0x58 c:/program files/gnu tools arm embedded/4.9 2015q2/bin/../lib/gcc/arm-none-eabi/4.9.3/../../../../arm-none-eabi/lib/armv7e-m/softfp\libg.a(lib_a-mprec.o)
 .text._mprec_log10
                0x00000000       0x34 c:/program files/gnu tools arm embedded/4.9 2015q2/bin/../lib/gcc/arm-none-eabi/4.9.3/../../../../arm-none-eabi/lib/armv7e-m/softfp\libg.a(lib_a-mprec.o)
 .text.__copybits
                0x00000000       0x48 c:/program files/gnu tools arm embedded/4.9 2015q2/bin/../lib/gcc/arm-none-eabi/4.9.3/../../../../arm-none-eabi/lib/armv7e-m/softfp\libg.a(lib_a-mprec.o)
 .text.__any_on
                0x00000000       0x60 c:/program files/gnu tools arm embedded/4.9 2015q2/bin/../lib/gcc/arm-none-eabi/4.9.3/../../../../arm-none-eabi/lib/armv7e-m/softfp\libg.a(lib_a-mprec.o)
 .rodata.__mprec_tinytens
                0x00000000       0x28 c:/program files/gnu tools arm embedded/4.9 2015q2/bin/../lib/gcc/arm-none-eabi/4.9.3/../../../../arm-none-eabi/lib/armv7e-m/softfp\libg.a(lib_a-mprec.o)
 .text          0x00000000        0x0 c:/program files/gnu tools arm embedded/4.9 2015q2/bin/../lib/gcc/arm-none-eabi/4.9.3/../../../../arm-none-eabi/lib/armv7e-m/softfp\libg.a(lib_a-s_fpclassify.o)
 .data          0x00000000        0x0 c:/program files/gnu tools arm embedded/4.9 2015q2/bin/../lib/gcc/arm-none-eabi/4.9.3/../../../../arm-none-eabi/lib/armv7e-m/softfp\libg.a(lib_a-s_fpclassify.o)
 .bss           0x00000000        0x0 c:/program files/gnu tools arm embedded/4.9 2015q2/bin/../lib/gcc/arm-none-eabi/4.9.3/../../../../arm-none-eabi/lib/armv7e-m/softfp\libg.a(lib_a-s_fpclassify.o)
 .text          0x00000000        0x0 c:/program files/gnu tools arm embedded/4.9 2015q2/bin/../lib/gcc/arm-none-eabi/4.9.3/../../../../arm-none-eabi/lib/armv7e-m/softfp\libg.a(lib_a-sbrkr.o)
 .data          0x00000000        0x0 c:/program files/gnu tools arm embedded/4.9 2015q2/bin/../lib/gcc/arm-none-eabi/4.9.3/../../../../arm-none-eabi/lib/armv7e-m/softfp\libg.a(lib_a-sbrkr.o)
 .bss           0x00000000        0x0 c:/program files/gnu tools arm embedded/4.9 2015q2/bin/../lib/gcc/arm-none-eabi/4.9.3/../../../../arm-none-eabi/lib/armv7e-m/softfp\libg.a(lib_a-sbrkr.o)
 .text          0x00000000        0x0 c:/program files/gnu tools arm embedded/4.9 2015q2/bin/../lib/gcc/arm-none-eabi/4.9.3/../../../../arm-none-eabi/lib/armv7e-m/softfp\libg.a(lib_a-stdio.o)
 .data          0x00000000        0x0 c:/program files/gnu tools arm embedded/4.9 2015q2/bin/../lib/gcc/arm-none-eabi/4.9.3/../../../../arm-none-eabi/lib/armv7e-m/softfp\libg.a(lib_a-stdio.o)
 .bss           0x00000000        0x0 c:/program files/gnu tools arm embedded/4.9 2015q2/bin/../lib/gcc/arm-none-eabi/4.9.3/../../../../arm-none-eabi/lib/armv7e-m/softfp\libg.a(lib_a-stdio.o)
 .text.__seofread
                0x00000000        0x4 c:/program files/gnu tools arm embedded/4.9 2015q2/bin/../lib/gcc/arm-none-eabi/4.9.3/../../../../arm-none-eabi/lib/armv7e-m/softfp\libg.a(lib_a-stdio.o)
 .text          0x00000000        0x0 c:/program files/gnu tools arm embedded/4.9 2015q2/bin/../lib/gcc/arm-none-eabi/4.9.3/../../../../arm-none-eabi/lib/armv7e-m/softfp\libg.a(lib_a-svfiprintf.o)
 .data          0x00000000        0x0 c:/program files/gnu tools arm embedded/4.9 2015q2/bin/../lib/gcc/arm-none-eabi/4.9.3/../../../../arm-none-eabi/lib/armv7e-m/softfp\libg.a(lib_a-svfiprintf.o)
 .bss           0x00000000        0x0 c:/program files/gnu tools arm embedded/4.9 2015q2/bin/../lib/gcc/arm-none-eabi/4.9.3/../../../../arm-none-eabi/lib/armv7e-m/softfp\libg.a(lib_a-svfiprintf.o)
 .text._svfiprintf_r
                0x00000000      0xaa0 c:/program files/gnu tools arm embedded/4.9 2015q2/bin/../lib/gcc/arm-none-eabi/4.9.3/../../../../arm-none-eabi/lib/armv7e-m/softfp\libg.a(lib_a-svfiprintf.o)
 .rodata.blanks.6854
                0x00000000       0x10 c:/program files/gnu tools arm embedded/4.9 2015q2/bin/../lib/gcc/arm-none-eabi/4.9.3/../../../../arm-none-eabi/lib/armv7e-m/softfp\libg.a(lib_a-svfiprintf.o)
 .rodata.str1.4
                0x00000000       0x2f c:/program files/gnu tools arm embedded/4.9 2015q2/bin/../lib/gcc/arm-none-eabi/4.9.3/../../../../arm-none-eabi/lib/armv7e-m/softfp\libg.a(lib_a-svfiprintf.o)
 .rodata.zeroes.6855
                0x00000000       0x10 c:/program files/gnu tools arm embedded/4.9 2015q2/bin/../lib/gcc/arm-none-eabi/4.9.3/../../../../arm-none-eabi/lib/armv7e-m/softfp\libg.a(lib_a-svfiprintf.o)
 .text          0x00000000        0x0 c:/program files/gnu tools arm embedded/4.9 2015q2/bin/../lib/gcc/arm-none-eabi/4.9.3/../../../../arm-none-eabi/lib/armv7e-m/softfp\libg.a(lib_a-vfiprintf.o)
 .data          0x00000000        0x0 c:/program files/gnu tools arm embedded/4.9 2015q2/bin/../lib/gcc/arm-none-eabi/4.9.3/../../../../arm-none-eabi/lib/armv7e-m/softfp\libg.a(lib_a-vfiprintf.o)
 .bss           0x00000000        0x0 c:/program files/gnu tools arm embedded/4.9 2015q2/bin/../lib/gcc/arm-none-eabi/4.9.3/../../../../arm-none-eabi/lib/armv7e-m/softfp\libg.a(lib_a-vfiprintf.o)
 .text._vfiprintf_r
                0x00000000      0xc10 c:/program files/gnu tools arm embedded/4.9 2015q2/bin/../lib/gcc/arm-none-eabi/4.9.3/../../../../arm-none-eabi/lib/armv7e-m/softfp\libg.a(lib_a-vfiprintf.o)
 .text.vfiprintf
                0x00000000       0x18 c:/program files/gnu tools arm embedded/4.9 2015q2/bin/../lib/gcc/arm-none-eabi/4.9.3/../../../../arm-none-eabi/lib/armv7e-m/softfp\libg.a(lib_a-vfiprintf.o)
 .text.__sbprintf
                0x00000000       0x78 c:/program files/gnu tools arm embedded/4.9 2015q2/bin/../lib/gcc/arm-none-eabi/4.9.3/../../../../arm-none-eabi/lib/armv7e-m/softfp\libg.a(lib_a-vfiprintf.o)
 .rodata.zeroes.6869
                0x00000000       0x10 c:/program files/gnu tools arm embedded/4.9 2015q2/bin/../lib/gcc/arm-none-eabi/4.9.3/../../../../arm-none-eabi/lib/armv7e-m/softfp\libg.a(lib_a-vfiprintf.o)
 .rodata.str1.4
                0x00000000       0x2f c:/program files/gnu tools arm embedded/4.9 2015q2/bin/../lib/gcc/arm-none-eabi/4.9.3/../../../../arm-none-eabi/lib/armv7e-m/softfp\libg.a(lib_a-vfiprintf.o)
 .rodata.blanks.6868
                0x00000000       0x10 c:/program files/gnu tools arm embedded/4.9 2015q2/bin/../lib/gcc/arm-none-eabi/4.9.3/../../../../arm-none-eabi/lib/armv7e-m/softfp\libg.a(lib_a-vfiprintf.o)
 .text          0x00000000        0x0 c:/program files/gnu tools arm embedded/4.9 2015q2/bin/../lib/gcc/arm-none-eabi/4.9.3/../../../../arm-none-eabi/lib/armv7e-m/softfp\libg.a(lib_a-writer.o)
 .data          0x00000000        0x0 c:/program files/gnu tools arm embedded/4.9 2015q2/bin/../lib/gcc/arm-none-eabi/4.9.3/../../../../arm-none-eabi/lib/armv7e-m/softfp\libg.a(lib_a-writer.o)
 .bss           0x00000000        0x0 c:/program files/gnu tools arm embedded/4.9 2015q2/bin/../lib/gcc/arm-none-eabi/4.9.3/../../../../arm-none-eabi/lib/armv7e-m/softfp\libg.a(lib_a-writer.o)
 .text          0x00000000        0x0 c:/program files/gnu tools arm embedded/4.9 2015q2/bin/../lib/gcc/arm-none-eabi/4.9.3/../../../../arm-none-eabi/lib/armv7e-m/softfp\libg.a(lib_a-callocr.o)
 .data          0x00000000        0x0 c:/program files/gnu tools arm embedded/4.9 2015q2/bin/../lib/gcc/arm-none-eabi/4.9.3/../../../../arm-none-eabi/lib/armv7e-m/softfp\libg.a(lib_a-callocr.o)
 .bss           0x00000000        0x0 c:/program files/gnu tools arm embedded/4.9 2015q2/bin/../lib/gcc/arm-none-eabi/4.9.3/../../../../arm-none-eabi/lib/armv7e-m/softfp\libg.a(lib_a-callocr.o)
 .text          0x00000000        0x0 c:/program files/gnu tools arm embedded/4.9 2015q2/bin/../lib/gcc/arm-none-eabi/4.9.3/../../../../arm-none-eabi/lib/armv7e-m/softfp\libg.a(lib_a-closer.o)
 .data          0x00000000        0x0 c:/program files/gnu tools arm embedded/4.9 2015q2/bin/../lib/gcc/arm-none-eabi/4.9.3/../../../../arm-none-eabi/lib/armv7e-m/softfp\libg.a(lib_a-closer.o)
 .bss           0x00000000        0x0 c:/program files/gnu tools arm embedded/4.9 2015q2/bin/../lib/gcc/arm-none-eabi/4.9.3/../../../../arm-none-eabi/lib/armv7e-m/softfp\libg.a(lib_a-closer.o)
 .text          0x00000000        0x0 c:/program files/gnu tools arm embedded/4.9 2015q2/bin/../lib/gcc/arm-none-eabi/4.9.3/../../../../arm-none-eabi/lib/armv7e-m/softfp\libg.a(lib_a-fclose.o)
 .data          0x00000000        0x0 c:/program files/gnu tools arm embedded/4.9 2015q2/bin/../lib/gcc/arm-none-eabi/4.9.3/../../../../arm-none-eabi/lib/armv7e-m/softfp\libg.a(lib_a-fclose.o)
 .bss           0x00000000        0x0 c:/program files/gnu tools arm embedded/4.9 2015q2/bin/../lib/gcc/arm-none-eabi/4.9.3/../../../../arm-none-eabi/lib/armv7e-m/softfp\libg.a(lib_a-fclose.o)
 .text.fclose   0x00000000       0x10 c:/program files/gnu tools arm embedded/4.9 2015q2/bin/../lib/gcc/arm-none-eabi/4.9.3/../../../../arm-none-eabi/lib/armv7e-m/softfp\libg.a(lib_a-fclose.o)
 .text          0x00000000        0x0 c:/program files/gnu tools arm embedded/4.9 2015q2/bin/../lib/gcc/arm-none-eabi/4.9.3/../../../../arm-none-eabi/lib/armv7e-m/softfp\libg.a(lib_a-fputwc.o)
 .data          0x00000000        0x0 c:/program files/gnu tools arm embedded/4.9 2015q2/bin/../lib/gcc/arm-none-eabi/4.9.3/../../../../arm-none-eabi/lib/armv7e-m/softfp\libg.a(lib_a-fputwc.o)
 .bss           0x00000000        0x0 c:/program files/gnu tools arm embedded/4.9 2015q2/bin/../lib/gcc/arm-none-eabi/4.9.3/../../../../arm-none-eabi/lib/armv7e-m/softfp\libg.a(lib_a-fputwc.o)
 .text.fputwc   0x00000000       0x28 c:/program files/gnu tools arm embedded/4.9 2015q2/bin/../lib/gcc/arm-none-eabi/4.9.3/../../../../arm-none-eabi/lib/armv7e-m/softfp\libg.a(lib_a-fputwc.o)
 .text          0x00000000        0x0 c:/program files/gnu tools arm embedded/4.9 2015q2/bin/../lib/gcc/arm-none-eabi/4.9.3/../../../../arm-none-eabi/lib/armv7e-m/softfp\libg.a(lib_a-fstatr.o)
 .data          0x00000000        0x0 c:/program files/gnu tools arm embedded/4.9 2015q2/bin/../lib/gcc/arm-none-eabi/4.9.3/../../../../arm-none-eabi/lib/armv7e-m/softfp\libg.a(lib_a-fstatr.o)
 .bss           0x00000000        0x0 c:/program files/gnu tools arm embedded/4.9 2015q2/bin/../lib/gcc/arm-none-eabi/4.9.3/../../../../arm-none-eabi/lib/armv7e-m/softfp\libg.a(lib_a-fstatr.o)
 .text          0x00000000        0x0 c:/program files/gnu tools arm embedded/4.9 2015q2/bin/../lib/gcc/arm-none-eabi/4.9.3/../../../../arm-none-eabi/lib/armv7e-m/softfp\libg.a(lib_a-fvwrite.o)
 .data          0x00000000        0x0 c:/program files/gnu tools arm embedded/4.9 2015q2/bin/../lib/gcc/arm-none-eabi/4.9.3/../../../../arm-none-eabi/lib/armv7e-m/softfp\libg.a(lib_a-fvwrite.o)
 .bss           0x00000000        0x0 c:/program files/gnu tools arm embedded/4.9 2015q2/bin/../lib/gcc/arm-none-eabi/4.9.3/../../../../arm-none-eabi/lib/armv7e-m/softfp\libg.a(lib_a-fvwrite.o)
 .text          0x00000000        0x0 c:/program files/gnu tools arm embedded/4.9 2015q2/bin/../lib/gcc/arm-none-eabi/4.9.3/../../../../arm-none-eabi/lib/armv7e-m/softfp\libg.a(lib_a-isattyr.o)
 .data          0x00000000        0x0 c:/program files/gnu tools arm embedded/4.9 2015q2/bin/../lib/gcc/arm-none-eabi/4.9.3/../../../../arm-none-eabi/lib/armv7e-m/softfp\libg.a(lib_a-isattyr.o)
 .bss           0x00000000        0x0 c:/program files/gnu tools arm embedded/4.9 2015q2/bin/../lib/gcc/arm-none-eabi/4.9.3/../../../../arm-none-eabi/lib/armv7e-m/softfp\libg.a(lib_a-isattyr.o)
 .text          0x00000000        0x0 c:/program files/gnu tools arm embedded/4.9 2015q2/bin/../lib/gcc/arm-none-eabi/4.9.3/../../../../arm-none-eabi/lib/armv7e-m/softfp\libg.a(lib_a-lseekr.o)
 .data          0x00000000        0x0 c:/program files/gnu tools arm embedded/4.9 2015q2/bin/../lib/gcc/arm-none-eabi/4.9.3/../../../../arm-none-eabi/lib/armv7e-m/softfp\libg.a(lib_a-lseekr.o)
 .bss           0x00000000        0x0 c:/program files/gnu tools arm embedded/4.9 2015q2/bin/../lib/gcc/arm-none-eabi/4.9.3/../../../../arm-none-eabi/lib/armv7e-m/softfp\libg.a(lib_a-lseekr.o)
 .text          0x00000000        0x0 c:/program files/gnu tools arm embedded/4.9 2015q2/bin/../lib/gcc/arm-none-eabi/4.9.3/../../../../arm-none-eabi/lib/armv7e-m/softfp\libg.a(lib_a-memmove.o)
 .data          0x00000000        0x0 c:/program files/gnu tools arm embedded/4.9 2015q2/bin/../lib/gcc/arm-none-eabi/4.9.3/../../../../arm-none-eabi/lib/armv7e-m/softfp\libg.a(lib_a-memmove.o)
 .bss           0x00000000        0x0 c:/program files/gnu tools arm embedded/4.9 2015q2/bin/../lib/gcc/arm-none-eabi/4.9.3/../../../../arm-none-eabi/lib/armv7e-m/softfp\libg.a(lib_a-memmove.o)
 .text          0x00000000        0x0 c:/program files/gnu tools arm embedded/4.9 2015q2/bin/../lib/gcc/arm-none-eabi/4.9.3/../../../../arm-none-eabi/lib/armv7e-m/softfp\libg.a(lib_a-readr.o)
 .data          0x00000000        0x0 c:/program files/gnu tools arm embedded/4.9 2015q2/bin/../lib/gcc/arm-none-eabi/4.9.3/../../../../arm-none-eabi/lib/armv7e-m/softfp\libg.a(lib_a-readr.o)
 .bss           0x00000000        0x0 c:/program files/gnu tools arm embedded/4.9 2015q2/bin/../lib/gcc/arm-none-eabi/4.9.3/../../../../arm-none-eabi/lib/armv7e-m/softfp\libg.a(lib_a-readr.o)
 .text          0x00000000        0x0 c:/program files/gnu tools arm embedded/4.9 2015q2/bin/../lib/gcc/arm-none-eabi/4.9.3/../../../../arm-none-eabi/lib/armv7e-m/softfp\libg.a(lib_a-reallocr.o)
 .data          0x00000000        0x0 c:/program files/gnu tools arm embedded/4.9 2015q2/bin/../lib/gcc/arm-none-eabi/4.9.3/../../../../arm-none-eabi/lib/armv7e-m/softfp\libg.a(lib_a-reallocr.o)
 .bss           0x00000000        0x0 c:/program files/gnu tools arm embedded/4.9 2015q2/bin/../lib/gcc/arm-none-eabi/4.9.3/../../../../arm-none-eabi/lib/armv7e-m/softfp\libg.a(lib_a-reallocr.o)
 .text          0x00000000        0x0 c:/program files/gnu tools arm embedded/4.9 2015q2/bin/../lib/gcc/arm-none-eabi/4.9.3/../../../../arm-none-eabi/lib/armv7e-m/softfp\libg.a(lib_a-reent.o)
 .data          0x00000000        0x0 c:/program files/gnu tools arm embedded/4.9 2015q2/bin/../lib/gcc/arm-none-eabi/4.9.3/../../../../arm-none-eabi/lib/armv7e-m/softfp\libg.a(lib_a-reent.o)
 .bss           0x00000000        0x0 c:/program files/gnu tools arm embedded/4.9 2015q2/bin/../lib/gcc/arm-none-eabi/4.9.3/../../../../arm-none-eabi/lib/armv7e-m/softfp\libg.a(lib_a-reent.o)
 .text.cleanup_glue
                0x00000000       0x1c c:/program files/gnu tools arm embedded/4.9 2015q2/bin/../lib/gcc/arm-none-eabi/4.9.3/../../../../arm-none-eabi/lib/armv7e-m/softfp\libg.a(lib_a-reent.o)
 .text._reclaim_reent
                0x00000000       0x88 c:/program files/gnu tools arm embedded/4.9 2015q2/bin/../lib/gcc/arm-none-eabi/4.9.3/../../../../arm-none-eabi/lib/armv7e-m/softfp\libg.a(lib_a-reent.o)
 .text          0x00000000        0x0 c:/program files/gnu tools arm embedded/4.9 2015q2/bin/../lib/gcc/arm-none-eabi/4.9.3/../../../../arm-none-eabi/lib/armv7e-m/softfp\libg.a(lib_a-wbuf.o)
 .data          0x00000000        0x0 c:/program files/gnu tools arm embedded/4.9 2015q2/bin/../lib/gcc/arm-none-eabi/4.9.3/../../../../arm-none-eabi/lib/armv7e-m/softfp\libg.a(lib_a-wbuf.o)
 .bss           0x00000000        0x0 c:/program files/gnu tools arm embedded/4.9 2015q2/bin/../lib/gcc/arm-none-eabi/4.9.3/../../../../arm-none-eabi/lib/armv7e-m/softfp\libg.a(lib_a-wbuf.o)
 .text.__swbuf  0x00000000       0x10 c:/program files/gnu tools arm embedded/4.9 2015q2/bin/../lib/gcc/arm-none-eabi/4.9.3/../../../../arm-none-eabi/lib/armv7e-m/softfp\libg.a(lib_a-wbuf.o)
 .text          0x00000000        0x0 c:/program files/gnu tools arm embedded/4.9 2015q2/bin/../lib/gcc/arm-none-eabi/4.9.3/../../../../arm-none-eabi/lib/armv7e-m/softfp\libg.a(lib_a-wcrtomb.o)
 .data          0x00000000        0x0 c:/program files/gnu tools arm embedded/4.9 2015q2/bin/../lib/gcc/arm-none-eabi/4.9.3/../../../../arm-none-eabi/lib/armv7e-m/softfp\libg.a(lib_a-wcrtomb.o)
 .bss           0x00000000        0x0 c:/program files/gnu tools arm embedded/4.9 2015q2/bin/../lib/gcc/arm-none-eabi/4.9.3/../../../../arm-none-eabi/lib/armv7e-m/softfp\libg.a(lib_a-wcrtomb.o)
 .text.wcrtomb  0x00000000       0x58 c:/program files/gnu tools arm embedded/4.9 2015q2/bin/../lib/gcc/arm-none-eabi/4.9.3/../../../../arm-none-eabi/lib/armv7e-m/softfp\libg.a(lib_a-wcrtomb.o)
 .text          0x00000000        0x0 c:/program files/gnu tools arm embedded/4.9 2015q2/bin/../lib/gcc/arm-none-eabi/4.9.3/../../../../arm-none-eabi/lib/armv7e-m/softfp\libg.a(lib_a-wctomb_r.o)
 .data          0x00000000        0x0 c:/program files/gnu tools arm embedded/4.9 2015q2/bin/../lib/gcc/arm-none-eabi/4.9.3/../../../../arm-none-eabi/lib/armv7e-m/softfp\libg.a(lib_a-wctomb_r.o)
 .bss           0x00000000        0x0 c:/program files/gnu tools arm embedded/4.9 2015q2/bin/../lib/gcc/arm-none-eabi/4.9.3/../../../../arm-none-eabi/lib/armv7e-m/softfp\libg.a(lib_a-wctomb_r.o)
 .text._wctomb_r
                0x00000000       0x30 c:/program files/gnu tools arm embedded/4.9 2015q2/bin/../lib/gcc/arm-none-eabi/4.9.3/../../../../arm-none-eabi/lib/armv7e-m/softfp\libg.a(lib_a-wctomb_r.o)
 .data          0x00000000        0x0 c:/program files/gnu tools arm embedded/4.9 2015q2/bin/../lib/gcc/arm-none-eabi/4.9.3/armv7e-m/softfp\libgcc.a(_arm_addsubdf3.o)
 .bss           0x00000000        0x0 c:/program files/gnu tools arm embedded/4.9 2015q2/bin/../lib/gcc/arm-none-eabi/4.9.3/armv7e-m/softfp\libgcc.a(_arm_addsubdf3.o)
 .data          0x00000000        0x0 c:/program files/gnu tools arm embedded/4.9 2015q2/bin/../lib/gcc/arm-none-eabi/4.9.3/armv7e-m/softfp\libgcc.a(_arm_muldivdf3.o)
 .bss           0x00000000        0x0 c:/program files/gnu tools arm embedded/4.9 2015q2/bin/../lib/gcc/arm-none-eabi/4.9.3/armv7e-m/softfp\libgcc.a(_arm_muldivdf3.o)
 .data          0x00000000        0x0 c:/program files/gnu tools arm embedded/4.9 2015q2/bin/../lib/gcc/arm-none-eabi/4.9.3/armv7e-m/softfp\libgcc.a(_arm_cmpdf2.o)
 .bss           0x00000000        0x0 c:/program files/gnu tools arm embedded/4.9 2015q2/bin/../lib/gcc/arm-none-eabi/4.9.3/armv7e-m/softfp\libgcc.a(_arm_cmpdf2.o)
 .data          0x00000000        0x0 c:/program files/gnu tools arm embedded/4.9 2015q2/bin/../lib/gcc/arm-none-eabi/4.9.3/armv7e-m/softfp\libgcc.a(_arm_fixdfsi.o)
 .bss           0x00000000        0x0 c:/program files/gnu tools arm embedded/4.9 2015q2/bin/../lib/gcc/arm-none-eabi/4.9.3/armv7e-m/softfp\libgcc.a(_arm_fixdfsi.o)
 .data          0x00000000        0x0 c:/program files/gnu tools arm embedded/4.9 2015q2/bin/../lib/gcc/arm-none-eabi/4.9.3/armv7e-m/softfp\libgcc.a(_aeabi_uldivmod.o)
 .bss           0x00000000        0x0 c:/program files/gnu tools arm embedded/4.9 2015q2/bin/../lib/gcc/arm-none-eabi/4.9.3/armv7e-m/softfp\libgcc.a(_aeabi_uldivmod.o)
 .data          0x00000000        0x0 c:/program files/gnu tools arm embedded/4.9 2015q2/bin/../lib/gcc/arm-none-eabi/4.9.3/armv7e-m/softfp\libgcc.a(bpabi.o)
 .bss           0x00000000        0x0 c:/program files/gnu tools arm embedded/4.9 2015q2/bin/../lib/gcc/arm-none-eabi/4.9.3/armv7e-m/softfp\libgcc.a(bpabi.o)
 .data          0x00000000        0x0 c:/program files/gnu tools arm embedded/4.9 2015q2/bin/../lib/gcc/arm-none-eabi/4.9.3/armv7e-m/softfp\libgcc.a(_dvmd_tls.o)
 .bss           0x00000000        0x0 c:/program files/gnu tools arm embedded/4.9 2015q2/bin/../lib/gcc/arm-none-eabi/4.9.3/armv7e-m/softfp\libgcc.a(_dvmd_tls.o)
 .data          0x00000000        0x0 c:/program files/gnu tools arm embedded/4.9 2015q2/bin/../lib/gcc/arm-none-eabi/4.9.3/armv7e-m/softfp\libgcc.a(_divdi3.o)
 .bss           0x00000000        0x0 c:/program files/gnu tools arm embedded/4.9 2015q2/bin/../lib/gcc/arm-none-eabi/4.9.3/armv7e-m/softfp\libgcc.a(_divdi3.o)
 .ARM.extab     0x00000000        0x0 c:/program files/gnu tools arm embedded/4.9 2015q2/bin/../lib/gcc/arm-none-eabi/4.9.3/armv7e-m/softfp\libgcc.a(_divdi3.o)
 .data          0x00000000        0x0 c:/program files/gnu tools arm embedded/4.9 2015q2/bin/../lib/gcc/arm-none-eabi/4.9.3/armv7e-m/softfp\libgcc.a(_udivdi3.o)
 .bss           0x00000000        0x0 c:/program files/gnu tools arm embedded/4.9 2015q2/bin/../lib/gcc/arm-none-eabi/4.9.3/armv7e-m/softfp\libgcc.a(_udivdi3.o)
 .ARM.extab     0x00000000        0x0 c:/program files/gnu tools arm embedded/4.9 2015q2/bin/../lib/gcc/arm-none-eabi/4.9.3/armv7e-m/softfp\libgcc.a(_udivdi3.o)

Memory Configuration

Name             Origin             Length             Attributes
vector           0x08000000         0x00004000         xr
flash_1          0x08004000         0x00004000         r
flash_2          0x08008000         0x00004000         r
rom              0x0800c000         0x000f4000         xr
ram              0x20000000         0x00020000         xrw
ram1             0x10000000         0x00010000         xrw
*default*        0x00000000         0xffffffff

Linker script and memory map

                0x20020000                _eram = 0x20020000

.isr_vector     0x08000000      0x188
                0x08000000                . = ALIGN (0x4)
 *(.isr_vector)
 .isr_vector    0x08000000      0x188 ..\obj\startup_stm32f4xx.o
                0x08000000                g_pfnVectors
                0x08000188                . = ALIGN (0x4)

.flash_cfg1     0x08004000       0x1c
                0x08004000                . = ALIGN (0x4)
                0x08004000                _flash_cfg1_start = .
 *(.flash_cfg1)
 .flash_cfg1    0x08004000       0x1c ..\obj\cfg_info.o
                0x0800401c                . = ALIGN (0x4)

.flash_cfg2     0x08008000       0x1c
                0x08008000                . = ALIGN (0x4)
                0x08008000                _flash_cfg2_start = .
 *(.flash_cfg2)
 .flash_cfg2    0x08008000       0x1c ..\obj\cfg_info.o
                0x0800801c                . = ALIGN (0x4)

.text           0x0800c000    0x15920
                0x0800c000                . = ALIGN (0x4)
 *(.text*)
 .text.SYSCFG_ETH_MediaInterfaceConfig
                0x0800c000       0x1c ..\obj\stm32f4xx_syscfg.o
                0x0800c000                SYSCFG_ETH_MediaInterfaceConfig
 .text.plug_holes
                0x0800c01c       0xbc ..\obj\mem.o
 .text.mem_init
                0x0800c0d8       0x80 ..\obj\mem.o
                0x0800c0d8                mem_init
 .text.mem_free
                0x0800c158       0x74 ..\obj\mem.o
                0x0800c158                mem_free
 .text.mem_trim
                0x0800c1cc      0x188 ..\obj\mem.o
                0x0800c1cc                mem_trim
 .text.mem_malloc
                0x0800c354      0x164 ..\obj\mem.o
                0x0800c354                mem_malloc
 .text.eMBTCPInit
                0x0800c4b8       0xa4 ..\obj\mb.o
                0x0800c4b8                eMBTCPInit
 .text.eMBEnable
                0x0800c55c       0x38 ..\obj\mb.o
                0x0800c55c                eMBEnable
 .text.eMBPoll  0x0800c594      0x170 ..\obj\mb.o
                0x0800c594                eMBPoll
 .text.eMBFuncReadDiscreteInputs
                0x0800c704      0x104 ..\obj\mbfuncdisc.o
                0x0800c704                eMBFuncReadDiscreteInputs
 .text.tcp_init
                0x0800c808        0xc ..\obj\tcp.o
                0x0800c808                tcp_init
 .text.tcp_tmr  0x0800c814       0x2c ..\obj\tcp.o
                0x0800c814                tcp_tmr
 .text.tcp_close_shutdown
                0x0800c840      0x250 ..\obj\tcp.o
 .text.tcp_close
                0x0800ca90       0x30 ..\obj\tcp.o
                0x0800ca90                tcp_close
 .text.tcp_abandon
                0x0800cac0       0xc0 ..\obj\tcp.o
                0x0800cac0                tcp_abandon
 .text.tcp_abort
                0x0800cb80       0x18 ..\obj\tcp.o
                0x0800cb80                tcp_abort
 .text.tcp_bind
                0x0800cb98       0xdc ..\obj\tcp.o
                0x0800cb98                tcp_bind
 .text.tcp_accept_null
                0x0800cc74       0x20 ..\obj\tcp.o
 .text.tcp_listen_with_backlog
                0x0800cc94      0x114 ..\obj\tcp.o
                0x0800cc94                tcp_listen_with_backlog
 .text.tcp_update_rcv_ann_wnd
                0x0800cda8       0x84 ..\obj\tcp.o
                0x0800cda8                tcp_update_rcv_ann_wnd
 .text.tcp_recved
                0x0800ce2c       0x5c ..\obj\tcp.o
                0x0800ce2c                tcp_recved
 .text.tcp_new_port
                0x0800ce88       0x8c ..\obj\tcp.o
 .text.tcp_slowtmr
                0x0800cf14      0x42c ..\obj\tcp.o
                0x0800cf14                tcp_slowtmr
 .text.tcp_fasttmr
                0x0800d340       0xa0 ..\obj\tcp.o
                0x0800d340                tcp_fasttmr
 .text.tcp_process_refused_data
                0x0800d3e0       0xc8 ..\obj\tcp.o
                0x0800d3e0                tcp_process_refused_data
 .text.tcp_segs_free
                0x0800d4a8       0x28 ..\obj\tcp.o
                0x0800d4a8                tcp_segs_free
 .text.tcp_seg_free
                0x0800d4d0       0x30 ..\obj\tcp.o
                0x0800d4d0                tcp_seg_free
 .text.tcp_recv_null
                0x0800d500       0x48 ..\obj\tcp.o
                0x0800d500                tcp_recv_null
 .text.tcp_kill_prio
                0x0800d548       0x80 ..\obj\tcp.o
 .text.tcp_kill_timewait
                0x0800d5c8       0x5c ..\obj\tcp.o
 .text.tcp_alloc
                0x0800d624      0x114 ..\obj\tcp.o
                0x0800d624                tcp_alloc
 .text.tcp_new  0x0800d738       0x10 ..\obj\tcp.o
                0x0800d738                tcp_new
 .text.tcp_arg  0x0800d748       0x1c ..\obj\tcp.o
                0x0800d748                tcp_arg
 .text.tcp_recv
                0x0800d764       0x1c ..\obj\tcp.o
                0x0800d764                tcp_recv
 .text.tcp_err  0x0800d780       0x1c ..\obj\tcp.o
                0x0800d780                tcp_err
 .text.tcp_accept
                0x0800d79c       0x1c ..\obj\tcp.o
                0x0800d79c                tcp_accept
 .text.tcp_pcb_purge
                0x0800d7b8       0x70 ..\obj\tcp.o
                0x0800d7b8                tcp_pcb_purge
 .text.tcp_pcb_remove
                0x0800d828       0xa8 ..\obj\tcp.o
                0x0800d828                tcp_pcb_remove
 .text.tcp_next_iss
                0x0800d8d0       0x28 ..\obj\tcp.o
                0x0800d8d0                tcp_next_iss
 .text.tcp_eff_send_mss
                0x0800d8f8       0x40 ..\obj\tcp.o
                0x0800d8f8                tcp_eff_send_mss
 .text.xMBPortEventInit
                0x0800d938       0x34 ..\obj\portevent.o
                0x0800d938                xMBPortEventInit
 .text.xMBPortEventPost
                0x0800d96c       0x4c ..\obj\portevent.o
                0x0800d96c                xMBPortEventPost
 .text.xMBPortEventGet
                0x0800d9b8       0x34 ..\obj\portevent.o
                0x0800d9b8                xMBPortEventGet
 .text.xMBTCPPortInit
                0x0800d9ec       0xac ..\obj\porttcp.o
                0x0800d9ec                xMBTCPPortInit
 .text.prvvMBPortReleaseClient
                0x0800da98       0x8c ..\obj\porttcp.o
                0x0800da98                prvvMBPortReleaseClient
 .text.vMBTCPPortDisable
                0x0800db24       0x14 ..\obj\porttcp.o
                0x0800db24                vMBTCPPortDisable
 .text.prvxMBTCPPortAccept
                0x0800db38       0xb0 ..\obj\porttcp.o
 .text.prvvMBTCPPortError
                0x0800dbe8       0x34 ..\obj\porttcp.o
 .text.prvxMBTCPPortReceive
                0x0800dc1c      0x10c ..\obj\porttcp.o
 .text.xMBTCPPortGetRequest
                0x0800dd28       0x34 ..\obj\porttcp.o
                0x0800dd28                xMBTCPPortGetRequest
 .text.xMBTCPPortSendResponse
                0x0800dd5c       0x6c ..\obj\porttcp.o
                0x0800dd5c                xMBTCPPortSendResponse
 .text.eMBSetSlaveID
                0x0800ddc8       0x9c ..\obj\mbfuncother.o
                0x0800ddc8                eMBSetSlaveID
 .text.eMBFuncReportSlaveID
                0x0800de64       0x3c ..\obj\mbfuncother.o
                0x0800de64                eMBFuncReportSlaveID
 .text.tcp_input
                0x0800dea0      0x5f0 ..\obj\tcp_in.o
                0x0800dea0                tcp_input
 .text.tcp_listen_input
                0x0800e490      0x194 ..\obj\tcp_in.o
 .text.tcp_timewait_input
                0x0800e624       0xd8 ..\obj\tcp_in.o
 .text.tcp_process
                0x0800e6fc      0x6b8 ..\obj\tcp_in.o
 .text.tcp_receive
                0x0800edb4      0x8e0 ..\obj\tcp_in.o
 .text.tcp_parseopt
                0x0800f694      0x104 ..\obj\tcp_in.o
 .text.memp_init
                0x0800f798       0x98 ..\obj\memp.o
                0x0800f798                memp_init
 .text.memp_malloc
                0x0800f830       0x44 ..\obj\memp.o
                0x0800f830                memp_malloc
 .text.memp_free
                0x0800f874       0x3c ..\obj\memp.o
                0x0800f874                memp_free
 .text.tcpip_thread
                0x0800f8b0      0x114 ..\obj\tcpip.o
 .text.tcpip_input
                0x0800f9c4       0x64 ..\obj\tcpip.o
                0x0800f9c4                tcpip_input
 .text.tcpip_init
                0x0800fa28       0x50 ..\obj\tcpip.o
                0x0800fa28                tcpip_init
 .text.prveMBError2Exception
                0x0800fa78       0x40 ..\obj\mbutils.o
                0x0800fa78                prveMBError2Exception
 .text.Default_Reset_Handler
                0x0800fab8       0x6c ..\obj\startup_stm32f4xx.o
                0x0800fab8                Default_Reset_Handler
                0x0800fab8                Reset_Handler
 .text.Default_Handler
                0x0800fb24        0x8 ..\obj\startup_stm32f4xx.o
                0x0800fb24                RTC_Alarm_IRQHandler
                0x0800fb24                HASH_RNG_IRQHandler
                0x0800fb24                EXTI2_IRQHandler
                0x0800fb24                TIM8_CC_IRQHandler
                0x0800fb24                TIM1_CC_IRQHandler
                0x0800fb24                DMA2_Stream5_IRQHandler
                0x0800fb24                DMA1_Stream5_IRQHandler
                0x0800fb24                PVD_IRQHandler
                0x0800fb24                SDIO_IRQHandler
                0x0800fb24                TAMP_STAMP_IRQHandler
                0x0800fb24                CAN2_RX1_IRQHandler
                0x0800fb24                EXTI3_IRQHandler
                0x0800fb24                TIM8_TRG_COM_TIM14_IRQHandler
                0x0800fb24                TIM1_UP_TIM10_IRQHandler
                0x0800fb24                TIM8_UP_TIM13_IRQHandler
                0x0800fb24                I2C3_ER_IRQHandler
                0x0800fb24                EXTI0_IRQHandler
                0x0800fb24                I2C2_EV_IRQHandler
                0x0800fb24                DMA1_Stream2_IRQHandler
                0x0800fb24                CAN1_RX0_IRQHandler
                0x0800fb24                FPU_IRQHandler
                0x0800fb24                OTG_HS_WKUP_IRQHandler
                0x0800fb24                CAN2_SCE_IRQHandler
                0x0800fb24                DMA2_Stream2_IRQHandler
                0x0800fb24                SPI1_IRQHandler
                0x0800fb24                TIM6_DAC_IRQHandler
                0x0800fb24                TIM1_BRK_TIM9_IRQHandler
                0x0800fb24                DCMI_IRQHandler
                0x0800fb24                CAN2_RX0_IRQHandler
                0x0800fb24                DMA2_Stream3_IRQHandler
                0x0800fb24                USART6_IRQHandler
                0x0800fb24                USART3_IRQHandler
                0x0800fb24                CRYP_IRQHandler
                0x0800fb24                CAN1_RX1_IRQHandler
                0x0800fb24                UART5_IRQHandler
                0x0800fb24                DMA2_Stream0_IRQHandler
                0x0800fb24                TIM4_IRQHandler
                0x0800fb24                I2C1_EV_IRQHandler
                0x0800fb24                DMA1_Stream6_IRQHandler
                0x0800fb24                DMA1_Stream1_IRQHandler
                0x0800fb24                UART4_IRQHandler
                0x0800fb24                TIM3_IRQHandler
                0x0800fb24                RCC_IRQHandler
                0x0800fb24                TIM8_BRK_TIM12_IRQHandler
                0x0800fb24                EXTI15_10_IRQHandler
                0x0800fb24                ADC_IRQHandler
                0x0800fb24                DMA1_Stream7_IRQHandler
                0x0800fb24                TIM7_IRQHandler
                0x0800fb24                CAN2_TX_IRQHandler
                0x0800fb24                TIM5_IRQHandler
                0x0800fb24                DMA2_Stream7_IRQHandler
                0x0800fb24                I2C3_EV_IRQHandler
                0x0800fb24                EXTI9_5_IRQHandler
                0x0800fb24                RTC_WKUP_IRQHandler
                0x0800fb24                ETH_WKUP_IRQHandler
                0x0800fb24                SPI2_IRQHandler
                0x0800fb24                OTG_HS_EP1_IN_IRQHandler
                0x0800fb24                DMA1_Stream0_IRQHandler
                0x0800fb24                CAN1_TX_IRQHandler
                0x0800fb24                EXTI4_IRQHandler
                0x0800fb24                FSMC_IRQHandler
                0x0800fb24                OTG_HS_EP1_OUT_IRQHandler
                0x0800fb24                WWDG_IRQHandler
                0x0800fb24                TIM2_IRQHandler
                0x0800fb24                OTG_FS_WKUP_IRQHandler
                0x0800fb24                TIM1_TRG_COM_TIM11_IRQHandler
                0x0800fb24                OTG_HS_IRQHandler
                0x0800fb24                EXTI1_IRQHandler
                0x0800fb24                USART2_IRQHandler
                0x0800fb24                I2C2_ER_IRQHandler
                0x0800fb24                CAN1_SCE_IRQHandler
                0x0800fb24                FLASH_IRQHandler
                0x0800fb24                DMA2_Stream4_IRQHandler
                0x0800fb24                USART1_IRQHandler
                0x0800fb24                OTG_FS_IRQHandler
                0x0800fb24                SPI3_IRQHandler
                0x0800fb24                DMA1_Stream4_IRQHandler
                0x0800fb24                I2C1_ER_IRQHandler
                0x0800fb24                DMA2_Stream6_IRQHandler
                0x0800fb24                DMA1_Stream3_IRQHandler
 .text.ETH_Delay
                0x0800fb2c       0x28 ..\obj\stm32f4x7_eth.o
 .text.ETH_DeInit
                0x0800fb54       0x1c ..\obj\stm32f4x7_eth.o
                0x0800fb54                ETH_DeInit
 .text.ETH_StructInit
                0x0800fb70      0x15c ..\obj\stm32f4x7_eth.o
                0x0800fb70                ETH_StructInit
 .text.ETH_Init
                0x0800fccc      0x42c ..\obj\stm32f4x7_eth.o
                0x0800fccc                ETH_Init
 .text.ETH_Start
                0x080100f8       0x24 ..\obj\stm32f4x7_eth.o
                0x080100f8                ETH_Start
 .text.ETH_MACTransmissionCmd
                0x0801011c       0x38 ..\obj\stm32f4x7_eth.o
                0x0801011c                ETH_MACTransmissionCmd
 .text.ETH_MACReceptionCmd
                0x08010154       0x38 ..\obj\stm32f4x7_eth.o
                0x08010154                ETH_MACReceptionCmd
 .text.ETH_MACAddressConfig
                0x0801018c       0x6c ..\obj\stm32f4x7_eth.o
                0x0801018c                ETH_MACAddressConfig
 .text.ETH_Get_Received_Frame_interrupt
                0x080101f8      0x144 ..\obj\stm32f4x7_eth.o
                0x080101f8                ETH_Get_Received_Frame_interrupt
 .text.ETH_Prepare_Transmit_Descriptors
                0x0801033c      0x16c ..\obj\stm32f4x7_eth.o
                0x0801033c                ETH_Prepare_Transmit_Descriptors
 .text.ETH_DMARxDescChainInit
                0x080104a8       0xa8 ..\obj\stm32f4x7_eth.o
                0x080104a8                ETH_DMARxDescChainInit
 .text.ETH_DMATxDescChainInit
                0x08010550       0x90 ..\obj\stm32f4x7_eth.o
                0x08010550                ETH_DMATxDescChainInit
 .text.ETH_DMATxDescChecksumInsertionConfig
                0x080105e0       0x20 ..\obj\stm32f4x7_eth.o
                0x080105e0                ETH_DMATxDescChecksumInsertionConfig
 .text.ETH_DMARxDescReceiveITConfig
                0x08010600       0x38 ..\obj\stm32f4x7_eth.o
                0x08010600                ETH_DMARxDescReceiveITConfig
 .text.ETH_SoftwareReset
                0x08010638       0x24 ..\obj\stm32f4x7_eth.o
                0x08010638                ETH_SoftwareReset
 .text.ETH_GetSoftwareResetStatus
                0x0801065c       0x38 ..\obj\stm32f4x7_eth.o
                0x0801065c                ETH_GetSoftwareResetStatus
 .text.ETH_GetDMAFlagStatus
                0x08010694       0x3c ..\obj\stm32f4x7_eth.o
                0x08010694                ETH_GetDMAFlagStatus
 .text.ETH_DMAITConfig
                0x080106d0       0x54 ..\obj\stm32f4x7_eth.o
                0x080106d0                ETH_DMAITConfig
 .text.ETH_DMAClearITPendingBit
                0x08010724       0x24 ..\obj\stm32f4x7_eth.o
                0x08010724                ETH_DMAClearITPendingBit
 .text.ETH_FlushTransmitFIFO
                0x08010748       0x28 ..\obj\stm32f4x7_eth.o
                0x08010748                ETH_FlushTransmitFIFO
 .text.ETH_DMATransmissionCmd
                0x08010770       0x50 ..\obj\stm32f4x7_eth.o
                0x08010770                ETH_DMATransmissionCmd
 .text.ETH_DMAReceptionCmd
                0x080107c0       0x50 ..\obj\stm32f4x7_eth.o
                0x080107c0                ETH_DMAReceptionCmd
 .text.ETH_ReadPHYRegister
                0x08010810       0xa0 ..\obj\stm32f4x7_eth.o
                0x08010810                ETH_ReadPHYRegister
 .text.ETH_WritePHYRegister
                0x080108b0       0xa4 ..\obj\stm32f4x7_eth.o
                0x080108b0                ETH_WritePHYRegister
 .text.ip4_addr_isbroadcast
                0x08010954       0x78 ..\obj\ip_addr.o
                0x08010954                ip4_addr_isbroadcast
 .text.eMBFuncWriteHoldingRegister
                0x080109cc       0x70 ..\obj\mbfuncholding.o
                0x080109cc                eMBFuncWriteHoldingRegister
 .text.eMBFuncWriteMultipleHoldingRegister
                0x08010a3c       0xbc ..\obj\mbfuncholding.o
                0x08010a3c                eMBFuncWriteMultipleHoldingRegister
 .text.eMBFuncReadHoldingRegister
                0x08010af8       0xe4 ..\obj\mbfuncholding.o
                0x08010af8                eMBFuncReadHoldingRegister
 .text.eMBFuncReadWriteMultipleHoldingRegister
                0x08010bdc      0x160 ..\obj\mbfuncholding.o
                0x08010bdc                eMBFuncReadWriteMultipleHoldingRegister
 .text.lwip_standard_chksum
                0x08010d3c       0xbc ..\obj\inet_chksum.o
 .text.inet_chksum
                0x08010df8       0x24 ..\obj\inet_chksum.o
                0x08010df8                inet_chksum
 .text.inet_chksum_pbuf
                0x08010e1c       0x98 ..\obj\inet_chksum.o
                0x08010e1c                inet_chksum_pbuf
 .text.LwIP_Init
                0x08010eb4       0x68 ..\obj\main.o
                0x08010eb4                LwIP_Init
 .text.Init_Task
                0x08010f1c       0x44 ..\obj\main.o
                0x08010f1c                Init_Task
 .text.main     0x08010f60       0x38 ..\obj\main.o
                0x08010f60                main
 .text.RCC_MCO1Config
                0x08010f98       0x3c ..\obj\stm32f4xx_rcc.o
                0x08010f98                RCC_MCO1Config
 .text.RCC_GetClocksFreq
                0x08010fd4      0x154 ..\obj\stm32f4xx_rcc.o
                0x08010fd4                RCC_GetClocksFreq
 .text.RCC_AHB1PeriphClockCmd
                0x08011128       0x3c ..\obj\stm32f4xx_rcc.o
                0x08011128                RCC_AHB1PeriphClockCmd
 .text.RCC_AHB2PeriphClockCmd
                0x08011164       0x3c ..\obj\stm32f4xx_rcc.o
                0x08011164                RCC_AHB2PeriphClockCmd
 .text.RCC_APB1PeriphClockCmd
                0x080111a0       0x3c ..\obj\stm32f4xx_rcc.o
                0x080111a0                RCC_APB1PeriphClockCmd
 .text.RCC_APB2PeriphClockCmd
                0x080111dc       0x3c ..\obj\stm32f4xx_rcc.o
                0x080111dc                RCC_APB2PeriphClockCmd
 .text.RCC_AHB1PeriphResetCmd
                0x08011218       0x3c ..\obj\stm32f4xx_rcc.o
                0x08011218                RCC_AHB1PeriphResetCmd
 .text.NMI_Handler
                0x08011254        0xc ..\obj\stm32f4xx_it.o
                0x08011254                NMI_Handler
 .text.HardFault_Handler
                0x08011260        0x8 ..\obj\stm32f4xx_it.o
                0x08011260                HardFault_Handler
 .text.MemManage_Handler
                0x08011268        0x8 ..\obj\stm32f4xx_it.o
                0x08011268                MemManage_Handler
 .text.BusFault_Handler
                0x08011270        0x8 ..\obj\stm32f4xx_it.o
                0x08011270                BusFault_Handler
 .text.UsageFault_Handler
                0x08011278        0x8 ..\obj\stm32f4xx_it.o
                0x08011278                UsageFault_Handler
 .text.DebugMon_Handler
                0x08011280        0xc ..\obj\stm32f4xx_it.o
                0x08011280                DebugMon_Handler
 .text.ETH_IRQHandler
                0x0801128c       0x5c ..\obj\stm32f4xx_it.o
                0x0801128c                ETH_IRQHandler
 .text.tcpip_tcp_timer
                0x080112e8       0x44 ..\obj\timers.o
 .text.tcp_timer_needed
                0x0801132c       0x40 ..\obj\timers.o
                0x0801132c                tcp_timer_needed
 .text.arp_timer
                0x0801136c       0x24 ..\obj\timers.o
 .text.dhcp_timer_coarse
                0x08011390       0x24 ..\obj\timers.o
 .text.dhcp_timer_fine
                0x080113b4       0x24 ..\obj\timers.o
 .text.sys_timeouts_init
                0x080113d8       0x38 ..\obj\timers.o
                0x080113d8                sys_timeouts_init
 .text.sys_timeout
                0x08011410       0xdc ..\obj\timers.o
                0x08011410                sys_timeout
 .text.sys_untimeout
                0x080114ec       0x8c ..\obj\timers.o
                0x080114ec                sys_untimeout
 .text.sys_timeouts_mbox_fetch
                0x08011578       0xac ..\obj\timers.o
                0x08011578                sys_timeouts_mbox_fetch
 .text.lwip_init
                0x08011624       0x24 ..\obj\init.o
                0x08011624                lwip_init
 .text.ETH_BSP_Config
                0x08011648       0x20 ..\obj\stm32f4x7_eth_bsp.o
                0x08011648                ETH_BSP_Config
 .text.ETH_MACDMA_Config
                0x08011668       0xc8 ..\obj\stm32f4x7_eth_bsp.o
 .text.ETH_GPIO_Config
                0x08011730      0x130 ..\obj\stm32f4x7_eth_bsp.o
 .text.ETH_NVIC_Config
                0x08011860       0x2c ..\obj\stm32f4x7_eth_bsp.o
 .text.eMBFuncReadInputRegister
                0x0801188c       0xe8 ..\obj\mbfuncinput.o
                0x0801188c                eMBFuncReadInputRegister
 .text.lwip_htons
                0x08011974       0x2c ..\obj\def.o
                0x08011974                lwip_htons
 .text.lwip_ntohs
                0x080119a0       0x1c ..\obj\def.o
                0x080119a0                lwip_ntohs
 .text.lwip_htonl
                0x080119bc       0x34 ..\obj\def.o
                0x080119bc                lwip_htonl
 .text.lwip_ntohl
                0x080119f0       0x18 ..\obj\def.o
                0x080119f0                lwip_ntohl
 .text.low_level_init
                0x08011a08      0x11c ..\obj\ethernetif.o
 .text.low_level_output
                0x08011b24       0xc0 ..\obj\ethernetif.o
 .text.low_level_input
                0x08011be4      0x100 ..\obj\ethernetif.o
 .text.ethernetif_input
                0x08011ce4       0x54 ..\obj\ethernetif.o
 .text.ethernetif_init
                0x08011d38       0x50 ..\obj\ethernetif.o
                0x08011d38                ethernetif_init
 .text.arp_timer
                0x08011d88       0x24 ..\obj\ethernetif.o
 .text.DCMI_DeInit
                0x08011dac       0x3c ..\obj\stm32f4xx_dcmi.o
                0x08011dac                DCMI_DeInit
 .text.DCMI_Init
                0x08011de8       0x80 ..\obj\stm32f4xx_dcmi.o
                0x08011de8                DCMI_Init
 .text.DCMI_JPEGCmd
                0x08011e68       0x38 ..\obj\stm32f4xx_dcmi.o
                0x08011e68                DCMI_JPEGCmd
 .text.DCMI_Cmd
                0x08011ea0       0x38 ..\obj\stm32f4xx_dcmi.o
                0x08011ea0                DCMI_Cmd
 .text.DCMI_CaptureCmd
                0x08011ed8       0x38 ..\obj\stm32f4xx_dcmi.o
                0x08011ed8                DCMI_CaptureCmd
 .text.etharp_free_entry
                0x08011f10       0x64 ..\obj\etharp.o
 .text.etharp_tmr
                0x08011f74       0xdc ..\obj\etharp.o
                0x08011f74                etharp_tmr
 .text.etharp_find_entry
                0x08012050      0x1fc ..\obj\etharp.o
 .text.etharp_send_ip
                0x0801224c       0x50 ..\obj\etharp.o
 .text.etharp_update_arp_entry
                0x0801229c      0x11c ..\obj\etharp.o
 .text.etharp_cleanup_netif
                0x080123b8       0x60 ..\obj\etharp.o
                0x080123b8                etharp_cleanup_netif
 .text.etharp_arp_input
                0x08012418      0x18c ..\obj\etharp.o
 .text.etharp_output_to_arp_index
                0x080125a4       0xa8 ..\obj\etharp.o
 .text.etharp_output
                0x0801264c      0x190 ..\obj\etharp.o
                0x0801264c                etharp_output
 .text.etharp_query
                0x080127dc      0x220 ..\obj\etharp.o
                0x080127dc                etharp_query
 .text.etharp_raw
                0x080129fc       0xf4 ..\obj\etharp.o
 .text.etharp_request
                0x08012af0       0x48 ..\obj\etharp.o
                0x08012af0                etharp_request
 .text.ethernet_input
                0x08012b38       0xfc ..\obj\etharp.o
                0x08012b38                ethernet_input
 .text.xTaskGenericCreate
                0x08012c34      0x1a4 ..\obj\tasks.o
                0x08012c34                xTaskGenericCreate
 .text.vTaskDelete
                0x08012dd8      0x104 ..\obj\tasks.o
                0x08012dd8                vTaskDelete
 .text.vTaskStartScheduler
                0x08012edc       0x80 ..\obj\tasks.o
                0x08012edc                vTaskStartScheduler
 .text.vTaskSuspendAll
                0x08012f5c       0x1c ..\obj\tasks.o
                0x08012f5c                vTaskSuspendAll
 .text.xTaskResumeAll
                0x08012f78      0x12c ..\obj\tasks.o
                0x08012f78                xTaskResumeAll
 .text.xTaskGetTickCount
                0x080130a4       0x20 ..\obj\tasks.o
                0x080130a4                xTaskGetTickCount
 .text.xTaskIncrementTick
                0x080130c4      0x180 ..\obj\tasks.o
                0x080130c4                xTaskIncrementTick
 .text.vTaskSwitchContext
                0x08013244       0xb4 ..\obj\tasks.o
                0x08013244                vTaskSwitchContext
 .text.vTaskPlaceOnEventList
                0x080132f8       0x9c ..\obj\tasks.o
                0x080132f8                vTaskPlaceOnEventList
 .text.xTaskRemoveFromEventList
                0x08013394       0xc8 ..\obj\tasks.o
                0x08013394                xTaskRemoveFromEventList
 .text.vTaskSetTimeOutState
                0x0801345c       0x44 ..\obj\tasks.o
                0x0801345c                vTaskSetTimeOutState
 .text.xTaskCheckForTimeOut
                0x080134a0       0xbc ..\obj\tasks.o
                0x080134a0                xTaskCheckForTimeOut
 .text.vTaskMissedYield
                0x0801355c       0x18 ..\obj\tasks.o
                0x0801355c                vTaskMissedYield
 .text.prvIdleTask
                0x08013574       0x30 ..\obj\tasks.o
 .text.prvInitialiseTCBVariables
                0x080135a4       0xa4 ..\obj\tasks.o
 .text.prvInitialiseTaskLists
                0x08013648       0x7c ..\obj\tasks.o
 .text.prvCheckTasksWaitingTermination
                0x080136c4       0x74 ..\obj\tasks.o
 .text.prvAddCurrentTaskToDelayedList
                0x08013738       0x6c ..\obj\tasks.o
 .text.prvAllocateTCBAndStack
                0x080137a4       0x70 ..\obj\tasks.o
 .text.prvDeleteTCB
                0x08013814       0x20 ..\obj\tasks.o
 .text.prvResetNextTaskUnblockTime
                0x08013834       0x48 ..\obj\tasks.o
 .text.vTaskPriorityInherit
                0x0801387c       0xf0 ..\obj\tasks.o
                0x0801387c                vTaskPriorityInherit
 .text.xTaskPriorityDisinherit
                0x0801396c       0xe8 ..\obj\tasks.o
                0x0801396c                xTaskPriorityDisinherit
 .text.pvTaskIncrementMutexHeldCount
                0x08013a54       0x28 ..\obj\tasks.o
                0x08013a54                pvTaskIncrementMutexHeldCount
 .text.pbuf_alloc
                0x08013a7c      0x1f4 ..\obj\pbuf.o
                0x08013a7c                pbuf_alloc
 .text.pbuf_realloc
                0x08013c70       0xc8 ..\obj\pbuf.o
                0x08013c70                pbuf_realloc
 .text.pbuf_header
                0x08013d38       0xe0 ..\obj\pbuf.o
                0x08013d38                pbuf_header
 .text.pbuf_free
                0x08013e18       0xa0 ..\obj\pbuf.o
                0x08013e18                pbuf_free
 .text.pbuf_clen
                0x08013eb8       0x30 ..\obj\pbuf.o
                0x08013eb8                pbuf_clen
 .text.pbuf_ref
                0x08013ee8       0x24 ..\obj\pbuf.o
                0x08013ee8                pbuf_ref
 .text.pbuf_cat
                0x08013f0c       0x5c ..\obj\pbuf.o
                0x08013f0c                pbuf_cat
 .text.pbuf_chain
                0x08013f68       0x20 ..\obj\pbuf.o
                0x08013f68                pbuf_chain
 .text.pbuf_copy
                0x08013f88      0x110 ..\obj\pbuf.o
                0x08013f88                pbuf_copy
 .text.pbuf_copy_partial
                0x08014098       0xcc ..\obj\pbuf.o
                0x08014098                pbuf_copy_partial
 .text.ADC_Ext_Init
                0x08014164       0x54 ..\obj\adc_dcmi.o
                0x08014164                ADC_Ext_Init
 .text.Timestamp_Init
                0x080141b8       0xb8 ..\obj\adc_dcmi.o
                0x080141b8                Timestamp_Init
 .text.ADC_GetLastTimestamp
                0x08014270       0x1c ..\obj\adc_dcmi.o
                0x08014270                ADC_GetLastTimestamp
 .text.ADC_GetLastVal
                0x0801428c      0x124 ..\obj\adc_dcmi.o
                0x0801428c                ADC_GetLastVal
 .text.ADC_DCMI_Tim_Init
                0x080143b0      0x158 ..\obj\adc_dcmi.o
                0x080143b0                ADC_DCMI_Tim_Init
 .text.ADC_DCMI_Core_Init
                0x08014508      0x1cc ..\obj\adc_dcmi.o
                0x08014508                ADC_DCMI_Core_Init
 .text.DMA2_Stream1_IRQHandler
                0x080146d4       0xe0 ..\obj\adc_dcmi.o
                0x080146d4                DMA2_Stream1_IRQHandler
 .text.netif_init
                0x080147b4        0xc ..\obj\netif.o
                0x080147b4                netif_init
 .text.netif_add
                0x080147c0       0x88 ..\obj\netif.o
                0x080147c0                netif_add
 .text.netif_set_addr
                0x08014848       0x2c ..\obj\netif.o
                0x08014848                netif_set_addr
 .text.netif_set_ipaddr
                0x08014874       0xb0 ..\obj\netif.o
                0x08014874                netif_set_ipaddr
 .text.netif_set_gw
                0x08014924       0x28 ..\obj\netif.o
                0x08014924                netif_set_gw
 .text.netif_set_netmask
                0x0801494c       0x28 ..\obj\netif.o
                0x0801494c                netif_set_netmask
 .text.netif_set_default
                0x08014974       0x1c ..\obj\netif.o
                0x08014974                netif_set_default
 .text.netif_set_up
                0x08014990       0x58 ..\obj\netif.o
                0x08014990                netif_set_up
 .text.netif_set_down
                0x080149e8       0x44 ..\obj\netif.o
                0x080149e8                netif_set_down
 .text.GPIO_Init
                0x08014a2c      0x11c ..\obj\stm32f4xx_gpio.o
                0x08014a2c                GPIO_Init
 .text.GPIO_SetBits
                0x08014b48       0x1c ..\obj\stm32f4xx_gpio.o
                0x08014b48                GPIO_SetBits
 .text.GPIO_ResetBits
                0x08014b64       0x1c ..\obj\stm32f4xx_gpio.o
                0x08014b64                GPIO_ResetBits
 .text.GPIO_ToggleBits
                0x08014b80       0x24 ..\obj\stm32f4xx_gpio.o
                0x08014b80                GPIO_ToggleBits
 .text.GPIO_PinAFConfig
                0x08014ba4       0x90 ..\obj\stm32f4xx_gpio.o
                0x08014ba4                GPIO_PinAFConfig
 .text.FLASH_Unlock
                0x08014c34       0x2c ..\obj\stm32f4xx_flash.o
                0x08014c34                FLASH_Unlock
 .text.FLASH_Lock
                0x08014c60       0x1c ..\obj\stm32f4xx_flash.o
                0x08014c60                FLASH_Lock
 .text.FLASH_EraseSector
                0x08014c7c       0xc0 ..\obj\stm32f4xx_flash.o
                0x08014c7c                FLASH_EraseSector
 .text.FLASH_ProgramWord
                0x08014d3c       0x68 ..\obj\stm32f4xx_flash.o
                0x08014d3c                FLASH_ProgramWord
 .text.FLASH_ClearFlag
                0x08014da4       0x1c ..\obj\stm32f4xx_flash.o
                0x08014da4                FLASH_ClearFlag
 .text.FLASH_GetStatus
                0x08014dc0       0x68 ..\obj\stm32f4xx_flash.o
                0x08014dc0                FLASH_GetStatus
 .text.FLASH_WaitForLastOperation
                0x08014e28       0x44 ..\obj\stm32f4xx_flash.o
                0x08014e28                FLASH_WaitForLastOperation
 .text.sys_mbox_new
                0x08014e6c       0x38 ..\obj\sys_arch.o
                0x08014e6c                sys_mbox_new
 .text.sys_mbox_trypost
                0x08014ea4       0x6c ..\obj\sys_arch.o
                0x08014ea4                sys_mbox_trypost
 .text.sys_arch_mbox_fetch
                0x08014f10       0xbc ..\obj\sys_arch.o
                0x08014f10                sys_arch_mbox_fetch
 .text.sys_mutex_new
                0x08014fcc       0x30 ..\obj\sys_arch.o
                0x08014fcc                sys_mutex_new
 .text.sys_mutex_lock
                0x08014ffc       0x28 ..\obj\sys_arch.o
                0x08014ffc                sys_mutex_lock
 .text.sys_mutex_unlock
                0x08015024       0x20 ..\obj\sys_arch.o
                0x08015024                sys_mutex_unlock
 .text.sys_init
                0x08015044        0xc ..\obj\sys_arch.o
                0x08015044                sys_init
 .text.sys_thread_new
                0x08015050       0x4c ..\obj\sys_arch.o
                0x08015050                sys_thread_new
 .text.vListInitialise
                0x0801509c       0x40 ..\obj\list.o
                0x0801509c                vListInitialise
 .text.vListInitialiseItem
                0x080150dc       0x18 ..\obj\list.o
                0x080150dc                vListInitialiseItem
 .text.vListInsertEnd
                0x080150f4       0x48 ..\obj\list.o
                0x080150f4                vListInsertEnd
 .text.vListInsert
                0x0801513c       0x70 ..\obj\list.o
                0x0801513c                vListInsert
 .text.uxListRemove
                0x080151ac       0x54 ..\obj\list.o
                0x080151ac                uxListRemove
 .text.SystemInit
                0x08015200       0x68 ..\obj\system_stm32f4xx.o
                0x08015200                SystemInit
 .text.SetSysClock
                0x08015268       0xf4 ..\obj\system_stm32f4xx.o
 .text._sbrk    0x0801535c       0x40 ..\obj\syscalls.o
                0x0801535c                _sbrk
 .text._close   0x0801539c       0x18 ..\obj\syscalls.o
                0x0801539c                _close
 .text._fstat   0x080153b4       0x20 ..\obj\syscalls.o
                0x080153b4                _fstat
 .text._isatty  0x080153d4       0x18 ..\obj\syscalls.o
                0x080153d4                _isatty
 .text._lseek   0x080153ec       0x1c ..\obj\syscalls.o
                0x080153ec                _lseek
 .text._read    0x08015408       0x1c ..\obj\syscalls.o
                0x08015408                _read
 .text._write   0x08015424       0x1c ..\obj\syscalls.o
                0x08015424                _write
 .text.DMA_Init
                0x08015440       0xac ..\obj\stm32f4xx_dma.o
                0x08015440                DMA_Init
 .text.DMA_Cmd  0x080154ec       0x38 ..\obj\stm32f4xx_dma.o
                0x080154ec                DMA_Cmd
 .text.DMA_ITConfig
                0x08015524       0x74 ..\obj\stm32f4xx_dma.o
                0x08015524                DMA_ITConfig
 .text.DMA_GetITStatus
                0x08015598       0xb0 ..\obj\stm32f4xx_dma.o
                0x08015598                DMA_GetITStatus
 .text.DMA_ClearITPendingBit
                0x08015648       0x5c ..\obj\stm32f4xx_dma.o
                0x08015648                DMA_ClearITPendingBit
 .text.prvvMBTCPLogFrame
                0x080156a4      0x18c ..\obj\portother.o
                0x080156a4                prvvMBTCPLogFrame
 .text.vMBPortLog
                0x08015830       0x44 ..\obj\portother.o
                0x08015830                vMBPortLog
 .text.bMBPortIsWithinException
                0x08015874       0x18 ..\obj\portother.o
                0x08015874                bMBPortIsWithinException
 .text.xQueueGenericReset
                0x0801588c       0xd0 ..\obj\queue.o
                0x0801588c                xQueueGenericReset
 .text.xQueueGenericCreate
                0x0801595c       0xb8 ..\obj\queue.o
                0x0801595c                xQueueGenericCreate
 .text.xQueueCreateMutex
                0x08015a14       0xa0 ..\obj\queue.o
                0x08015a14                xQueueCreateMutex
 .text.xQueueCreateCountingSemaphore
                0x08015ab4       0x7c ..\obj\queue.o
                0x08015ab4                xQueueCreateCountingSemaphore
 .text.xQueueGenericSend
                0x08015b30      0x1c0 ..\obj\queue.o
                0x08015b30                xQueueGenericSend
 .text.xQueueGenericSendFromISR
                0x08015cf0      0x118 ..\obj\queue.o
                0x08015cf0                xQueueGenericSendFromISR
 .text.xQueueGiveFromISR
                0x08015e08       0xd4 ..\obj\queue.o
                0x08015e08                xQueueGiveFromISR
 .text.xQueueGenericReceive
                0x08015edc      0x1e0 ..\obj\queue.o
                0x08015edc                xQueueGenericReceive
 .text.prvCopyDataToQueue
                0x080160bc       0xdc ..\obj\queue.o
 .text.prvCopyDataFromQueue
                0x08016198       0x4c ..\obj\queue.o
 .text.prvUnlockQueue
                0x080161e4       0x98 ..\obj\queue.o
 .text.prvIsQueueEmpty
                0x0801627c       0x2c ..\obj\queue.o
 .text.prvIsQueueFull
                0x080162a8       0x30 ..\obj\queue.o
 .text.pxPortInitialiseStack
                0x080162d8       0x64 ..\obj\port.o
                0x080162d8                pxPortInitialiseStack
 .text.prvTaskExitError
                0x0801633c       0x3c ..\obj\port.o
 .text.SVC_Handler
                0x08016378       0x20 ..\obj\port.o
                0x08016378                SVC_Handler
 .text.prvPortStartFirstTask
                0x08016398       0x20 ..\obj\port.o
 .text.xPortStartScheduler
                0x080163b8      0x118 ..\obj\port.o
                0x080163b8                xPortStartScheduler
 .text.vPortEnterCritical
                0x080164d0       0x5c ..\obj\port.o
                0x080164d0                vPortEnterCritical
 .text.vPortExitCritical
                0x0801652c       0x4c ..\obj\port.o
                0x0801652c                vPortExitCritical
 .text.PendSV_Handler
                0x08016578       0x60 ..\obj\port.o
                0x08016578                PendSV_Handler
 .text.SysTick_Handler
                0x080165d8       0x44 ..\obj\port.o
                0x080165d8                SysTick_Handler
 .text.vPortSetupTimerInterrupt
                0x0801661c       0x34 ..\obj\port.o
                0x0801661c                vPortSetupTimerInterrupt
 .text.vPortEnableVFP
                0x08016650       0x14 ..\obj\port.o
 .text.vPortValidateInterruptPriority
                0x08016664       0x78 ..\obj\port.o
                0x08016664                vPortValidateInterruptPriority
 .text.MB_TCP_Init
                0x080166dc       0x4c ..\obj\mbinit.o
                0x080166dc                MB_TCP_Init
 .text.MB_TCP_Task
                0x08016728       0x10 ..\obj\mbinit.o
                0x08016728                MB_TCP_Task
 .text.FLASH_ErasePage
                0x08016738       0x48 ..\obj\cfg_info.o
 .text.FlashWrite_32
                0x08016780       0x7c ..\obj\cfg_info.o
 .text.ConfigInfoRead
                0x080167fc       0x8c ..\obj\cfg_info.o
                0x080167fc                ConfigInfoRead
 .text.ConfigInfoWrite
                0x08016888       0x68 ..\obj\cfg_info.o
                0x08016888                ConfigInfoWrite
 .text.StartConfigInfoWrite
                0x080168f0       0x30 ..\obj\cfg_info.o
                0x080168f0                StartConfigInfoWrite
 .text.Flash_Write_Task
                0x08016920       0x18 ..\obj\cfg_info.o
                0x08016920                Flash_Write_Task
 .text.udp_init
                0x08016938        0xc ..\obj\udp.o
                0x08016938                udp_init
 .text.udp_new_port
                0x08016944       0x74 ..\obj\udp.o
 .text.udp_input
                0x080169b8      0x27c ..\obj\udp.o
                0x080169b8                udp_input
 .text.udp_sendto
                0x08016c34       0x40 ..\obj\udp.o
                0x08016c34                udp_sendto
 .text.udp_sendto_if
                0x08016c74      0x130 ..\obj\udp.o
                0x08016c74                udp_sendto_if
 .text.udp_bind
                0x08016da4       0xc0 ..\obj\udp.o
                0x08016da4                udp_bind
 .text.udp_new  0x08016e64       0x30 ..\obj\udp.o
                0x08016e64                udp_new
 .text.ip_route
                0x08016e94       0x78 ..\obj\ip.o
                0x08016e94                ip_route
 .text.ip_input
                0x08016f0c      0x234 ..\obj\ip.o
                0x08016f0c                ip_input
 .text.ip_output_if
                0x08017140       0xf4 ..\obj\ip.o
                0x08017140                ip_output_if
 .text.ip_output
                0x08017234       0x4c ..\obj\ip.o
                0x08017234                ip_output
 .text.eMBFuncReadCoils
                0x08017280      0x104 ..\obj\mbfunccoils.o
                0x08017280                eMBFuncReadCoils
 .text.eMBFuncWriteCoil
                0x08017384       0xb0 ..\obj\mbfunccoils.o
                0x08017384                eMBFuncWriteCoil
 .text.eMBFuncWriteMultipleCoils
                0x08017434       0xd8 ..\obj\mbfunccoils.o
                0x08017434                eMBFuncWriteMultipleCoils
 .text.icmp_input
                0x0801750c      0x1ec ..\obj\icmp.o
                0x0801750c                icmp_input
 .text.icmp_dest_unreach
                0x080176f8       0x20 ..\obj\icmp.o
                0x080176f8                icmp_dest_unreach
 .text.icmp_send_response
                0x08017718       0xac ..\obj\icmp.o
 .text.NVIC_PriorityGroupConfig
                0x080177c4       0x24 ..\obj\misc.o
                0x080177c4                NVIC_PriorityGroupConfig
 .text.NVIC_Init
                0x080177e8       0xc0 ..\obj\misc.o
                0x080177e8                NVIC_Init
 .text.udp_client_init
                0x080178a8       0x9c ..\obj\udp_send.o
                0x080178a8                udp_client_init
 .text.delay    0x08017944       0x20 ..\obj\udp_send.o
                0x08017944                delay
 .text.udp_client_send_buf
                0x08017964       0xb0 ..\obj\udp_send.o
                0x08017964                udp_client_send_buf
 .text.UDP_Send_Task
                0x08017a14       0x28 ..\obj\udp_send.o
                0x08017a14                UDP_Send_Task
 .text.eMBTCPDoInit
                0x08017a3c       0x2c ..\obj\mbtcp.o
                0x08017a3c                eMBTCPDoInit
 .text.eMBTCPStart
                0x08017a68        0xc ..\obj\mbtcp.o
                0x08017a68                eMBTCPStart
 .text.eMBTCPStop
                0x08017a74        0xc ..\obj\mbtcp.o
                0x08017a74                eMBTCPStop
 .text.eMBTCPReceive
                0x08017a80       0x74 ..\obj\mbtcp.o
                0x08017a80                eMBTCPReceive
 .text.eMBTCPSend
                0x08017af4       0x5c ..\obj\mbtcp.o
                0x08017af4                eMBTCPSend
 .text.dhcp_check
                0x08017b50       0x5c ..\obj\dhcp.o
 .text.dhcp_select
                0x08017bac      0x138 ..\obj\dhcp.o
 .text.dhcp_coarse_tmr
                0x08017ce4       0x5c ..\obj\dhcp.o
                0x08017ce4                dhcp_coarse_tmr
 .text.dhcp_fine_tmr
                0x08017d40       0x60 ..\obj\dhcp.o
                0x08017d40                dhcp_fine_tmr
 .text.dhcp_timeout
                0x08017da0       0xc8 ..\obj\dhcp.o
 .text.dhcp_t1_timeout
                0x08017e68       0x34 ..\obj\dhcp.o
 .text.dhcp_t2_timeout
                0x08017e9c       0x34 ..\obj\dhcp.o
 .text.dhcp_arp_reply
                0x08017ed0       0x40 ..\obj\dhcp.o
                0x08017ed0                dhcp_arp_reply
 .text.dhcp_decline
                0x08017f10       0xc4 ..\obj\dhcp.o
 .text.dhcp_discover
                0x08017fd4      0x104 ..\obj\dhcp.o
 .text.dhcp_bind
                0x080180d8      0x148 ..\obj\dhcp.o
 .text.dhcp_renew
                0x08018220       0xd4 ..\obj\dhcp.o
                0x08018220                dhcp_renew
 .text.dhcp_rebind
                0x080182f4       0xd8 ..\obj\dhcp.o
 .text.dhcp_reboot
                0x080183cc       0xf4 ..\obj\dhcp.o
 .text.dhcp_release
                0x080184c0      0x10c ..\obj\dhcp.o
                0x080184c0                dhcp_release
 .text.dhcp_set_state
                0x080185cc       0x34 ..\obj\dhcp.o
 .text.dhcp_option
                0x08018600       0x4c ..\obj\dhcp.o
 .text.dhcp_option_byte
                0x0801864c       0x30 ..\obj\dhcp.o
 .text.dhcp_option_short
                0x0801867c       0x54 ..\obj\dhcp.o
 .text.dhcp_option_long
                0x080186d0       0x98 ..\obj\dhcp.o
 .text.dhcp_create_msg
                0x08018768      0x224 ..\obj\dhcp.o
 .text.dhcp_delete_msg
                0x0801898c       0x34 ..\obj\dhcp.o
 .text.dhcp_option_trailer
                0x080189c0       0x68 ..\obj\dhcp.o
 .text.eMBRegInputCB
                0x08018a28       0xa0 ..\obj\mbfunc.o
                0x08018a28                eMBRegInputCB
 .text.eMBRegHoldingCB
                0x08018ac8      0x1a4 ..\obj\mbfunc.o
                0x08018ac8                eMBRegHoldingCB
 .text.eMBRegCoilsCB
                0x08018c6c       0x28 ..\obj\mbfunc.o
                0x08018c6c                eMBRegCoilsCB
 .text.eMBRegDiscreteCB
                0x08018c94       0x20 ..\obj\mbfunc.o
                0x08018c94                eMBRegDiscreteCB
 .text.pvPortMalloc
                0x08018cb4      0x11c ..\obj\heap_2.o
                0x08018cb4                pvPortMalloc
 .text.vPortFree
                0x08018dd0       0x70 ..\obj\heap_2.o
                0x08018dd0                vPortFree
 .text.prvHeapInit
                0x08018e40       0x50 ..\obj\heap_2.o
 .text.TIM_TimeBaseInit
                0x08018e90       0xd4 ..\obj\stm32f4xx_tim.o
                0x08018e90                TIM_TimeBaseInit
 .text.TIM_TimeBaseStructInit
                0x08018f64       0x34 ..\obj\stm32f4xx_tim.o
                0x08018f64                TIM_TimeBaseStructInit
 .text.TIM_SetCounter
                0x08018f98       0x1c ..\obj\stm32f4xx_tim.o
                0x08018f98                TIM_SetCounter
 .text.TIM_ARRPreloadConfig
                0x08018fb4       0x40 ..\obj\stm32f4xx_tim.o
                0x08018fb4                TIM_ARRPreloadConfig
 .text.TIM_Cmd  0x08018ff4       0x40 ..\obj\stm32f4xx_tim.o
                0x08018ff4                TIM_Cmd
 .text.TIM_OC1Init
                0x08019034       0xf4 ..\obj\stm32f4xx_tim.o
                0x08019034                TIM_OC1Init
 .text.TIM_OCStructInit
                0x08019128       0x44 ..\obj\stm32f4xx_tim.o
                0x08019128                TIM_OCStructInit
 .text.TIM_OC1PreloadConfig
                0x0801916c       0x38 ..\obj\stm32f4xx_tim.o
                0x0801916c                TIM_OC1PreloadConfig
 .text.TIM_CtrlPWMOutputs
                0x080191a4       0x4c ..\obj\stm32f4xx_tim.o
                0x080191a4                TIM_CtrlPWMOutputs
 .text.TIM_ETRClockMode2Config
                0x080191f0       0x3c ..\obj\stm32f4xx_tim.o
                0x080191f0                TIM_ETRClockMode2Config
 .text.TIM_SelectInputTrigger
                0x0801922c       0x38 ..\obj\stm32f4xx_tim.o
                0x0801922c                TIM_SelectInputTrigger
 .text.TIM_SelectOutputTrigger
                0x08019264       0x38 ..\obj\stm32f4xx_tim.o
                0x08019264                TIM_SelectOutputTrigger
 .text.TIM_SelectSlaveMode
                0x0801929c       0x38 ..\obj\stm32f4xx_tim.o
                0x0801929c                TIM_SelectSlaveMode
 .text.TIM_SelectMasterSlaveMode
                0x080192d4       0x38 ..\obj\stm32f4xx_tim.o
                0x080192d4                TIM_SelectMasterSlaveMode
 .text.TIM_ETRConfig
                0x0801930c       0x54 ..\obj\stm32f4xx_tim.o
                0x0801930c                TIM_ETRConfig
 .text.tcp_output_alloc_header
                0x08019360       0xd0 ..\obj\tcp_out.o
 .text.tcp_send_fin
                0x08019430       0x80 ..\obj\tcp_out.o
                0x08019430                tcp_send_fin
 .text.tcp_create_segment
                0x080194b0      0x104 ..\obj\tcp_out.o
 .text.tcp_pbuf_prealloc
                0x080195b4       0xa4 ..\obj\tcp_out.o
 .text.tcp_write_checks
                0x08019658       0xac ..\obj\tcp_out.o
 .text.tcp_write
                0x08019704      0x454 ..\obj\tcp_out.o
                0x08019704                tcp_write
 .text.tcp_enqueue_flags
                0x08019b58      0x18c ..\obj\tcp_out.o
                0x08019b58                tcp_enqueue_flags
 .text.tcp_send_empty_ack
                0x08019ce4       0x74 ..\obj\tcp_out.o
                0x08019ce4                tcp_send_empty_ack
 .text.tcp_output
                0x08019d58      0x2a8 ..\obj\tcp_out.o
                0x08019d58                tcp_output
 .text.tcp_output_segment
                0x0801a000      0x14c ..\obj\tcp_out.o
 .text.tcp_rst  0x0801a14c       0xb8 ..\obj\tcp_out.o
                0x0801a14c                tcp_rst
 .text.tcp_rexmit_rto
                0x0801a204       0x60 ..\obj\tcp_out.o
                0x0801a204                tcp_rexmit_rto
 .text.tcp_rexmit
                0x0801a264       0x94 ..\obj\tcp_out.o
                0x0801a264                tcp_rexmit
 .text.tcp_rexmit_fast
                0x0801a2f8       0xa4 ..\obj\tcp_out.o
                0x0801a2f8                tcp_rexmit_fast
 .text.tcp_keepalive
                0x0801a39c       0x58 ..\obj\tcp_out.o
                0x0801a39c                tcp_keepalive
 .text.tcp_zero_window_probe
                0x0801a3f4       0xf0 ..\obj\tcp_out.o
                0x0801a3f4                tcp_zero_window_probe
 .text.raw_input
                0x0801a4e4       0xc0 ..\obj\raw.o
                0x0801a4e4                raw_input
 .text.memcmp   0x0801a5a4       0x64 c:/program files/gnu tools arm embedded/4.9 2015q2/bin/../lib/gcc/arm-none-eabi/4.9.3/../../../../arm-none-eabi/lib/armv7e-m/softfp\libg.a(lib_a-memcmp.o)
                0x0801a5a4                memcmp
 .text          0x0801a608      0x134 c:/program files/gnu tools arm embedded/4.9 2015q2/bin/../lib/gcc/arm-none-eabi/4.9.3/../../../../arm-none-eabi/lib/armv7e-m/softfp\libg.a(lib_a-memcpy.o)
                0x0801a608                memcpy
 .text.memset   0x0801a73c       0x9c c:/program files/gnu tools arm embedded/4.9 2015q2/bin/../lib/gcc/arm-none-eabi/4.9.3/../../../../arm-none-eabi/lib/armv7e-m/softfp\libg.a(lib_a-memset.o)
                0x0801a73c                memset
 .text.printf   0x0801a7d8       0x28 c:/program files/gnu tools arm embedded/4.9 2015q2/bin/../lib/gcc/arm-none-eabi/4.9.3/../../../../arm-none-eabi/lib/armv7e-m/softfp\libg.a(lib_a-printf.o)
                0x0801a7d8                printf
 .text.snprintf
                0x0801a800       0x9c c:/program files/gnu tools arm embedded/4.9 2015q2/bin/../lib/gcc/arm-none-eabi/4.9.3/../../../../arm-none-eabi/lib/armv7e-m/softfp\libg.a(lib_a-snprintf.o)
                0x0801a800                snprintf
 *fill*         0x0801a89c        0x4 
 .text          0x0801a8a0      0x2dc c:/program files/gnu tools arm embedded/4.9 2015q2/bin/../lib/gcc/arm-none-eabi/4.9.3/../../../../arm-none-eabi/lib/armv7e-m/softfp\libg.a(lib_a-strcmp.o)
                0x0801a8a8                strcmp
 .text.strlen   0x0801ab7c       0x5c c:/program files/gnu tools arm embedded/4.9 2015q2/bin/../lib/gcc/arm-none-eabi/4.9.3/../../../../arm-none-eabi/lib/armv7e-m/softfp\libg.a(lib_a-strlen.o)
                0x0801ab7c                strlen
 .text._svfprintf_r
                0x0801abd8     0x14d0 c:/program files/gnu tools arm embedded/4.9 2015q2/bin/../lib/gcc/arm-none-eabi/4.9.3/../../../../arm-none-eabi/lib/armv7e-m/softfp\libg.a(lib_a-svfprintf.o)
                0x0801abd8                _svfprintf_r
 .text._vfprintf_r
                0x0801c0a8     0x1428 c:/program files/gnu tools arm embedded/4.9 2015q2/bin/../lib/gcc/arm-none-eabi/4.9.3/../../../../arm-none-eabi/lib/armv7e-m/softfp\libg.a(lib_a-vfprintf.o)
                0x0801c0a8                _vfprintf_r
 .text.__sbprintf
                0x0801d4d0       0x78 c:/program files/gnu tools arm embedded/4.9 2015q2/bin/../lib/gcc/arm-none-eabi/4.9.3/../../../../arm-none-eabi/lib/armv7e-m/softfp\libg.a(lib_a-vfprintf.o)
 .text.vprintf  0x0801d548       0x1c c:/program files/gnu tools arm embedded/4.9 2015q2/bin/../lib/gcc/arm-none-eabi/4.9.3/../../../../arm-none-eabi/lib/armv7e-m/softfp\libg.a(lib_a-vprintf.o)
                0x0801d548                vprintf
 .text.__swsetup_r
                0x0801d564       0xc4 c:/program files/gnu tools arm embedded/4.9 2015q2/bin/../lib/gcc/arm-none-eabi/4.9.3/../../../../arm-none-eabi/lib/armv7e-m/softfp\libg.a(lib_a-wsetup.o)
                0x0801d564                __swsetup_r
 .text.quorem   0x0801d628      0x12c c:/program files/gnu tools arm embedded/4.9 2015q2/bin/../lib/gcc/arm-none-eabi/4.9.3/../../../../arm-none-eabi/lib/armv7e-m/softfp\libg.a(lib_a-dtoa.o)
 *fill*         0x0801d754        0x4 
 .text._dtoa_r  0x0801d758      0xe90 c:/program files/gnu tools arm embedded/4.9 2015q2/bin/../lib/gcc/arm-none-eabi/4.9.3/../../../../arm-none-eabi/lib/armv7e-m/softfp\libg.a(lib_a-dtoa.o)
                0x0801d758                _dtoa_r
 .text.__sflush_r
                0x0801e5e8      0x154 c:/program files/gnu tools arm embedded/4.9 2015q2/bin/../lib/gcc/arm-none-eabi/4.9.3/../../../../arm-none-eabi/lib/armv7e-m/softfp\libg.a(lib_a-fflush.o)
                0x0801e5e8                __sflush_r
 .text._fflush_r
                0x0801e73c       0x2c c:/program files/gnu tools arm embedded/4.9 2015q2/bin/../lib/gcc/arm-none-eabi/4.9.3/../../../../arm-none-eabi/lib/armv7e-m/softfp\libg.a(lib_a-fflush.o)
                0x0801e73c                _fflush_r
 .text._cleanup_r
                0x0801e768        0xc c:/program files/gnu tools arm embedded/4.9 2015q2/bin/../lib/gcc/arm-none-eabi/4.9.3/../../../../arm-none-eabi/lib/armv7e-m/softfp\libg.a(lib_a-findfp.o)
                0x0801e768                _cleanup_r
 .text.__sinit.part.1
                0x0801e774       0xf0 c:/program files/gnu tools arm embedded/4.9 2015q2/bin/../lib/gcc/arm-none-eabi/4.9.3/../../../../arm-none-eabi/lib/armv7e-m/softfp\libg.a(lib_a-findfp.o)
 .text.__sinit  0x0801e864        0xc c:/program files/gnu tools arm embedded/4.9 2015q2/bin/../lib/gcc/arm-none-eabi/4.9.3/../../../../arm-none-eabi/lib/armv7e-m/softfp\libg.a(lib_a-findfp.o)
                0x0801e864                __sinit
 .text.__sfp_lock_acquire
                0x0801e870        0x4 c:/program files/gnu tools arm embedded/4.9 2015q2/bin/../lib/gcc/arm-none-eabi/4.9.3/../../../../arm-none-eabi/lib/armv7e-m/softfp\libg.a(lib_a-findfp.o)
                0x0801e870                __sfp_lock_acquire
 .text.__sfp_lock_release
                0x0801e874        0x4 c:/program files/gnu tools arm embedded/4.9 2015q2/bin/../lib/gcc/arm-none-eabi/4.9.3/../../../../arm-none-eabi/lib/armv7e-m/softfp\libg.a(lib_a-findfp.o)
                0x0801e874                __sfp_lock_release
 .text._malloc_trim_r
                0x0801e878       0x9c c:/program files/gnu tools arm embedded/4.9 2015q2/bin/../lib/gcc/arm-none-eabi/4.9.3/../../../../arm-none-eabi/lib/armv7e-m/softfp\libg.a(lib_a-freer.o)
                0x0801e878                _malloc_trim_r
 .text._free_r  0x0801e914      0x1b0 c:/program files/gnu tools arm embedded/4.9 2015q2/bin/../lib/gcc/arm-none-eabi/4.9.3/../../../../arm-none-eabi/lib/armv7e-m/softfp\libg.a(lib_a-freer.o)
                0x0801e914                _free_r
 .text._fwalk_reent
                0x0801eac4       0x54 c:/program files/gnu tools arm embedded/4.9 2015q2/bin/../lib/gcc/arm-none-eabi/4.9.3/../../../../arm-none-eabi/lib/armv7e-m/softfp\libg.a(lib_a-fwalk.o)
                0x0801eac4                _fwalk_reent
 .text.__locale_charset
                0x0801eb18        0x8 c:/program files/gnu tools arm embedded/4.9 2015q2/bin/../lib/gcc/arm-none-eabi/4.9.3/../../../../arm-none-eabi/lib/armv7e-m/softfp\libg.a(lib_a-locale.o)
                0x0801eb18                __locale_charset
 .text.__locale_mb_cur_max
                0x0801eb20        0xc c:/program files/gnu tools arm embedded/4.9 2015q2/bin/../lib/gcc/arm-none-eabi/4.9.3/../../../../arm-none-eabi/lib/armv7e-m/softfp\libg.a(lib_a-locale.o)
                0x0801eb20                __locale_mb_cur_max
 .text._localeconv_r
                0x0801eb2c        0x8 c:/program files/gnu tools arm embedded/4.9 2015q2/bin/../lib/gcc/arm-none-eabi/4.9.3/../../../../arm-none-eabi/lib/armv7e-m/softfp\libg.a(lib_a-locale.o)
                0x0801eb2c                _localeconv_r
 .text.__smakebuf_r
                0x0801eb34       0xe0 c:/program files/gnu tools arm embedded/4.9 2015q2/bin/../lib/gcc/arm-none-eabi/4.9.3/../../../../arm-none-eabi/lib/armv7e-m/softfp\libg.a(lib_a-makebuf.o)
                0x0801eb34                __smakebuf_r
 .text._malloc_r
                0x0801ec14      0x524 c:/program files/gnu tools arm embedded/4.9 2015q2/bin/../lib/gcc/arm-none-eabi/4.9.3/../../../../arm-none-eabi/lib/armv7e-m/softfp\libg.a(lib_a-mallocr.o)
                0x0801ec14                _malloc_r
 .text.memchr   0x0801f138       0x94 c:/program files/gnu tools arm embedded/4.9 2015q2/bin/../lib/gcc/arm-none-eabi/4.9.3/../../../../arm-none-eabi/lib/armv7e-m/softfp\libg.a(lib_a-memchr.o)
                0x0801f138                memchr
 .text.__malloc_lock
                0x0801f1cc        0x4 c:/program files/gnu tools arm embedded/4.9 2015q2/bin/../lib/gcc/arm-none-eabi/4.9.3/../../../../arm-none-eabi/lib/armv7e-m/softfp\libg.a(lib_a-mlock.o)
                0x0801f1cc                __malloc_lock
 .text.__malloc_unlock
                0x0801f1d0        0x4 c:/program files/gnu tools arm embedded/4.9 2015q2/bin/../lib/gcc/arm-none-eabi/4.9.3/../../../../arm-none-eabi/lib/armv7e-m/softfp\libg.a(lib_a-mlock.o)
                0x0801f1d0                __malloc_unlock
 .text._Balloc  0x0801f1d4       0x4c c:/program files/gnu tools arm embedded/4.9 2015q2/bin/../lib/gcc/arm-none-eabi/4.9.3/../../../../arm-none-eabi/lib/armv7e-m/softfp\libg.a(lib_a-mprec.o)
                0x0801f1d4                _Balloc
 .text._Bfree   0x0801f220       0x14 c:/program files/gnu tools arm embedded/4.9 2015q2/bin/../lib/gcc/arm-none-eabi/4.9.3/../../../../arm-none-eabi/lib/armv7e-m/softfp\libg.a(lib_a-mprec.o)
                0x0801f220                _Bfree
 .text.__multadd
                0x0801f234       0x84 c:/program files/gnu tools arm embedded/4.9 2015q2/bin/../lib/gcc/arm-none-eabi/4.9.3/../../../../arm-none-eabi/lib/armv7e-m/softfp\libg.a(lib_a-mprec.o)
                0x0801f234                __multadd
 .text.__hi0bits
                0x0801f2b8       0x40 c:/program files/gnu tools arm embedded/4.9 2015q2/bin/../lib/gcc/arm-none-eabi/4.9.3/../../../../arm-none-eabi/lib/armv7e-m/softfp\libg.a(lib_a-mprec.o)
                0x0801f2b8                __hi0bits
 .text.__lo0bits
                0x0801f2f8       0x5c c:/program files/gnu tools arm embedded/4.9 2015q2/bin/../lib/gcc/arm-none-eabi/4.9.3/../../../../arm-none-eabi/lib/armv7e-m/softfp\libg.a(lib_a-mprec.o)
                0x0801f2f8                __lo0bits
 .text.__i2b    0x0801f354       0x14 c:/program files/gnu tools arm embedded/4.9 2015q2/bin/../lib/gcc/arm-none-eabi/4.9.3/../../../../arm-none-eabi/lib/armv7e-m/softfp\libg.a(lib_a-mprec.o)
                0x0801f354                __i2b
 .text.__multiply
                0x0801f368      0x134 c:/program files/gnu tools arm embedded/4.9 2015q2/bin/../lib/gcc/arm-none-eabi/4.9.3/../../../../arm-none-eabi/lib/armv7e-m/softfp\libg.a(lib_a-mprec.o)
                0x0801f368                __multiply
 .text.__pow5mult
                0x0801f49c       0xa0 c:/program files/gnu tools arm embedded/4.9 2015q2/bin/../lib/gcc/arm-none-eabi/4.9.3/../../../../arm-none-eabi/lib/armv7e-m/softfp\libg.a(lib_a-mprec.o)
                0x0801f49c                __pow5mult
 .text.__lshift
                0x0801f53c       0xac c:/program files/gnu tools arm embedded/4.9 2015q2/bin/../lib/gcc/arm-none-eabi/4.9.3/../../../../arm-none-eabi/lib/armv7e-m/softfp\libg.a(lib_a-mprec.o)
                0x0801f53c                __lshift
 .text.__mcmp   0x0801f5e8       0x48 c:/program files/gnu tools arm embedded/4.9 2015q2/bin/../lib/gcc/arm-none-eabi/4.9.3/../../../../arm-none-eabi/lib/armv7e-m/softfp\libg.a(lib_a-mprec.o)
                0x0801f5e8                __mcmp
 .text.__mdiff  0x0801f630       0xd4 c:/program files/gnu tools arm embedded/4.9 2015q2/bin/../lib/gcc/arm-none-eabi/4.9.3/../../../../arm-none-eabi/lib/armv7e-m/softfp\libg.a(lib_a-mprec.o)
                0x0801f630                __mdiff
 .text.__d2b    0x0801f704       0xb8 c:/program files/gnu tools arm embedded/4.9 2015q2/bin/../lib/gcc/arm-none-eabi/4.9.3/../../../../arm-none-eabi/lib/armv7e-m/softfp\libg.a(lib_a-mprec.o)
                0x0801f704                __d2b
 .text.__fpclassifyd
                0x0801f7bc       0x58 c:/program files/gnu tools arm embedded/4.9 2015q2/bin/../lib/gcc/arm-none-eabi/4.9.3/../../../../arm-none-eabi/lib/armv7e-m/softfp\libg.a(lib_a-s_fpclassify.o)
                0x0801f7bc                __fpclassifyd
 .text._sbrk_r  0x0801f814       0x24 c:/program files/gnu tools arm embedded/4.9 2015q2/bin/../lib/gcc/arm-none-eabi/4.9.3/../../../../arm-none-eabi/lib/armv7e-m/softfp\libg.a(lib_a-sbrkr.o)
                0x0801f814                _sbrk_r
 .text.__sread  0x0801f838       0x24 c:/program files/gnu tools arm embedded/4.9 2015q2/bin/../lib/gcc/arm-none-eabi/4.9.3/../../../../arm-none-eabi/lib/armv7e-m/softfp\libg.a(lib_a-stdio.o)
                0x0801f838                __sread
 .text.__swrite
                0x0801f85c       0x38 c:/program files/gnu tools arm embedded/4.9 2015q2/bin/../lib/gcc/arm-none-eabi/4.9.3/../../../../arm-none-eabi/lib/armv7e-m/softfp\libg.a(lib_a-stdio.o)
                0x0801f85c                __swrite
 .text.__sseek  0x0801f894       0x20 c:/program files/gnu tools arm embedded/4.9 2015q2/bin/../lib/gcc/arm-none-eabi/4.9.3/../../../../arm-none-eabi/lib/armv7e-m/softfp\libg.a(lib_a-stdio.o)
                0x0801f894                __sseek
 .text.__sclose
                0x0801f8b4        0x8 c:/program files/gnu tools arm embedded/4.9 2015q2/bin/../lib/gcc/arm-none-eabi/4.9.3/../../../../arm-none-eabi/lib/armv7e-m/softfp\libg.a(lib_a-stdio.o)
                0x0801f8b4                __sclose
 .text.__ssprint_r
                0x0801f8bc      0x104 c:/program files/gnu tools arm embedded/4.9 2015q2/bin/../lib/gcc/arm-none-eabi/4.9.3/../../../../arm-none-eabi/lib/armv7e-m/softfp\libg.a(lib_a-svfiprintf.o)
                0x0801f8bc                __ssprint_r
 .text.__sprint_r.part.0
                0x0801f9c0       0x78 c:/program files/gnu tools arm embedded/4.9 2015q2/bin/../lib/gcc/arm-none-eabi/4.9.3/../../../../arm-none-eabi/lib/armv7e-m/softfp\libg.a(lib_a-vfiprintf.o)
 .text.__sprint_r
                0x0801fa38       0x18 c:/program files/gnu tools arm embedded/4.9 2015q2/bin/../lib/gcc/arm-none-eabi/4.9.3/../../../../arm-none-eabi/lib/armv7e-m/softfp\libg.a(lib_a-vfiprintf.o)
                0x0801fa38                __sprint_r
 .text._write_r
                0x0801fa50       0x28 c:/program files/gnu tools arm embedded/4.9 2015q2/bin/../lib/gcc/arm-none-eabi/4.9.3/../../../../arm-none-eabi/lib/armv7e-m/softfp\libg.a(lib_a-writer.o)
                0x0801fa50                _write_r
 .text._calloc_r
                0x0801fa78       0x60 c:/program files/gnu tools arm embedded/4.9 2015q2/bin/../lib/gcc/arm-none-eabi/4.9.3/../../../../arm-none-eabi/lib/armv7e-m/softfp\libg.a(lib_a-callocr.o)
                0x0801fa78                _calloc_r
 .text._close_r
                0x0801fad8       0x24 c:/program files/gnu tools arm embedded/4.9 2015q2/bin/../lib/gcc/arm-none-eabi/4.9.3/../../../../arm-none-eabi/lib/armv7e-m/softfp\libg.a(lib_a-closer.o)
                0x0801fad8                _close_r
 .text._fclose_r
                0x0801fafc       0x84 c:/program files/gnu tools arm embedded/4.9 2015q2/bin/../lib/gcc/arm-none-eabi/4.9.3/../../../../arm-none-eabi/lib/armv7e-m/softfp\libg.a(lib_a-fclose.o)
                0x0801fafc                _fclose_r
 .text.__fputwc
                0x0801fb80       0xb0 c:/program files/gnu tools arm embedded/4.9 2015q2/bin/../lib/gcc/arm-none-eabi/4.9.3/../../../../arm-none-eabi/lib/armv7e-m/softfp\libg.a(lib_a-fputwc.o)
                0x0801fb80                __fputwc
 .text._fputwc_r
                0x0801fc30       0x24 c:/program files/gnu tools arm embedded/4.9 2015q2/bin/../lib/gcc/arm-none-eabi/4.9.3/../../../../arm-none-eabi/lib/armv7e-m/softfp\libg.a(lib_a-fputwc.o)
                0x0801fc30                _fputwc_r
 .text._fstat_r
                0x0801fc54       0x28 c:/program files/gnu tools arm embedded/4.9 2015q2/bin/../lib/gcc/arm-none-eabi/4.9.3/../../../../arm-none-eabi/lib/armv7e-m/softfp\libg.a(lib_a-fstatr.o)
                0x0801fc54                _fstat_r
 .text.__sfvwrite_r
                0x0801fc7c      0x318 c:/program files/gnu tools arm embedded/4.9 2015q2/bin/../lib/gcc/arm-none-eabi/4.9.3/../../../../arm-none-eabi/lib/armv7e-m/softfp\libg.a(lib_a-fvwrite.o)
                0x0801fc7c                __sfvwrite_r
 .text._isatty_r
                0x0801ff94       0x24 c:/program files/gnu tools arm embedded/4.9 2015q2/bin/../lib/gcc/arm-none-eabi/4.9.3/../../../../arm-none-eabi/lib/armv7e-m/softfp\libg.a(lib_a-isattyr.o)
                0x0801ff94                _isatty_r
 .text._lseek_r
                0x0801ffb8       0x28 c:/program files/gnu tools arm embedded/4.9 2015q2/bin/../lib/gcc/arm-none-eabi/4.9.3/../../../../arm-none-eabi/lib/armv7e-m/softfp\libg.a(lib_a-lseekr.o)
                0x0801ffb8                _lseek_r
 .text.memmove  0x0801ffe0       0xc8 c:/program files/gnu tools arm embedded/4.9 2015q2/bin/../lib/gcc/arm-none-eabi/4.9.3/../../../../arm-none-eabi/lib/armv7e-m/softfp\libg.a(lib_a-memmove.o)
                0x0801ffe0                memmove
 .text._read_r  0x080200a8       0x28 c:/program files/gnu tools arm embedded/4.9 2015q2/bin/../lib/gcc/arm-none-eabi/4.9.3/../../../../arm-none-eabi/lib/armv7e-m/softfp\libg.a(lib_a-readr.o)
                0x080200a8                _read_r
 .text._realloc_r
                0x080200d0      0x3ec c:/program files/gnu tools arm embedded/4.9 2015q2/bin/../lib/gcc/arm-none-eabi/4.9.3/../../../../arm-none-eabi/lib/armv7e-m/softfp\libg.a(lib_a-reallocr.o)
                0x080200d0                _realloc_r
 .text.__swbuf_r
                0x080204bc       0xa8 c:/program files/gnu tools arm embedded/4.9 2015q2/bin/../lib/gcc/arm-none-eabi/4.9.3/../../../../arm-none-eabi/lib/armv7e-m/softfp\libg.a(lib_a-wbuf.o)
                0x080204bc                __swbuf_r
 .text._wcrtomb_r
                0x08020564       0x54 c:/program files/gnu tools arm embedded/4.9 2015q2/bin/../lib/gcc/arm-none-eabi/4.9.3/../../../../arm-none-eabi/lib/armv7e-m/softfp\libg.a(lib_a-wcrtomb.o)
                0x08020564                _wcrtomb_r
 .text.__ascii_wctomb
                0x080205b8       0x1c c:/program files/gnu tools arm embedded/4.9 2015q2/bin/../lib/gcc/arm-none-eabi/4.9.3/../../../../arm-none-eabi/lib/armv7e-m/softfp\libg.a(lib_a-wctomb_r.o)
                0x080205b8                __ascii_wctomb
 .text          0x080205d4      0x370 c:/program files/gnu tools arm embedded/4.9 2015q2/bin/../lib/gcc/arm-none-eabi/4.9.3/armv7e-m/softfp\libgcc.a(_arm_addsubdf3.o)
                0x080205d4                __aeabi_drsub
                0x080205dc                __aeabi_dsub
                0x080205dc                __subdf3
                0x080205e0                __aeabi_dadd
                0x080205e0                __adddf3
                0x08020858                __floatunsidf
                0x08020858                __aeabi_ui2d
                0x08020878                __floatsidf
                0x08020878                __aeabi_i2d
                0x0802089c                __aeabi_f2d
                0x0802089c                __extendsfdf2
                0x080208d8                __floatundidf
                0x080208d8                __aeabi_ul2d
                0x080208e8                __floatdidf
                0x080208e8                __aeabi_l2d
 .text          0x08020944      0x424 c:/program files/gnu tools arm embedded/4.9 2015q2/bin/../lib/gcc/arm-none-eabi/4.9.3/armv7e-m/softfp\libgcc.a(_arm_muldivdf3.o)
                0x08020944                __aeabi_dmul
                0x08020944                __muldf3
                0x08020b98                __divdf3
                0x08020b98                __aeabi_ddiv
 .text          0x08020d68      0x110 c:/program files/gnu tools arm embedded/4.9 2015q2/bin/../lib/gcc/arm-none-eabi/4.9.3/armv7e-m/softfp\libgcc.a(_arm_cmpdf2.o)
                0x08020d68                __gtdf2
                0x08020d68                __gedf2
                0x08020d70                __ltdf2
                0x08020d70                __ledf2
                0x08020d78                __nedf2
                0x08020d78                __eqdf2
                0x08020d78                __cmpdf2
                0x08020df4                __aeabi_cdrcmple
                0x08020e04                __aeabi_cdcmpeq
                0x08020e04                __aeabi_cdcmple
                0x08020e14                __aeabi_dcmpeq
                0x08020e28                __aeabi_dcmplt
                0x08020e3c                __aeabi_dcmple
                0x08020e50                __aeabi_dcmpge
                0x08020e64                __aeabi_dcmpgt
 .text          0x08020e78       0x50 c:/program files/gnu tools arm embedded/4.9 2015q2/bin/../lib/gcc/arm-none-eabi/4.9.3/armv7e-m/softfp\libgcc.a(_arm_fixdfsi.o)
                0x08020e78                __aeabi_d2iz
                0x08020e78                __fixdfsi
 .text          0x08020ec8       0x30 c:/program files/gnu tools arm embedded/4.9 2015q2/bin/../lib/gcc/arm-none-eabi/4.9.3/armv7e-m/softfp\libgcc.a(_aeabi_uldivmod.o)
                0x08020ec8                __aeabi_uldivmod
 .text          0x08020ef8       0x60 c:/program files/gnu tools arm embedded/4.9 2015q2/bin/../lib/gcc/arm-none-eabi/4.9.3/armv7e-m/softfp\libgcc.a(bpabi.o)
                0x08020ef8                __gnu_ldivmod_helper
                0x08020f28                __gnu_uldivmod_helper
 .text          0x08020f58        0x4 c:/program files/gnu tools arm embedded/4.9 2015q2/bin/../lib/gcc/arm-none-eabi/4.9.3/armv7e-m/softfp\libgcc.a(_dvmd_tls.o)
                0x08020f58                __aeabi_idiv0
                0x08020f58                __aeabi_ldiv0
 .text          0x08020f5c      0x29c c:/program files/gnu tools arm embedded/4.9 2015q2/bin/../lib/gcc/arm-none-eabi/4.9.3/armv7e-m/softfp\libgcc.a(_divdi3.o)
                0x08020f5c                __divdi3
 .text          0x080211f8      0x26c c:/program files/gnu tools arm embedded/4.9 2015q2/bin/../lib/gcc/arm-none-eabi/4.9.3/armv7e-m/softfp\libgcc.a(_udivdi3.o)
                0x080211f8                __udivdi3
 *(.init)
 *(.fini)
 *crtbegin.o(.ctors)
 *crtbegin?.o(.ctors)
 *(EXCLUDE_FILE(*crtend.o *crtend?.o) .ctors)
 *(SORT(.ctors.*))
 *(.ctors)
 *crtbegin.o(.dtors)
 *crtbegin?.o(.dtors)
 *(EXCLUDE_FILE(*crtend.o *crtend?.o) .dtors)
 *(SORT(.dtors.*))
 *(.dtors)
 *(.rodata*)
 .rodata        0x08021464       0xcc ..\obj\tcp.o
                0x080214dc                tcp_state_str
                0x08021508                tcp_backoff
                0x08021518                tcp_persist_backoff
                0x08021520                tcp_pcb_lists
 .rodata        0x08021530       0xf7 ..\obj\porttcp.o
 *fill*         0x08021627        0x1 
 .rodata        0x08021628       0x30 ..\obj\memp.o
 .rodata        0x08021658        0xd ..\obj\tcpip.o
 *fill*         0x08021665        0x3 
 .rodata        0x08021668        0x8 ..\obj\ip_addr.o
                0x08021668                ip_addr_any
                0x0802166c                ip_addr_broadcast
 .rodata        0x08021670        0xa ..\obj\main.o
 *fill*         0x0802167a        0x2 
 .rodata        0x0802167c        0x7 ..\obj\ethernetif.o
 *fill*         0x08021683        0x1 
 .rodata        0x08021684        0xe ..\obj\etharp.o
                0x08021684                ethbroadcast
                0x0802168c                ethzero
 *fill*         0x08021692        0x2 
 .rodata        0x08021694        0x5 ..\obj\tasks.o
 *fill*         0x08021699        0x3 
 .rodata        0x0802169c       0x86 ..\obj\portother.o
 *fill*         0x08021722        0x2 
 .rodata        0x08021724        0xc ..\obj\mbinit.o
 .rodata        0x08021730       0x39 ..\obj\cfg_info.o
                0x08021730                configInfoHard
 *fill*         0x08021769        0x3 
 .rodata        0x0802176c        0x9 ..\obj\udp_send.o
 *fill*         0x08021775        0x3 
 .rodata.zeroes.6911
                0x08021778       0x10 c:/program files/gnu tools arm embedded/4.9 2015q2/bin/../lib/gcc/arm-none-eabi/4.9.3/../../../../arm-none-eabi/lib/armv7e-m/softfp\libg.a(lib_a-svfprintf.o)
 .rodata.blanks.6910
                0x08021788       0x10 c:/program files/gnu tools arm embedded/4.9 2015q2/bin/../lib/gcc/arm-none-eabi/4.9.3/../../../../arm-none-eabi/lib/armv7e-m/softfp\libg.a(lib_a-svfprintf.o)
 .rodata.str1.4
                0x08021798       0x42 c:/program files/gnu tools arm embedded/4.9 2015q2/bin/../lib/gcc/arm-none-eabi/4.9.3/../../../../arm-none-eabi/lib/armv7e-m/softfp\libg.a(lib_a-svfprintf.o)
 *fill*         0x080217da        0x2 
 .rodata.zeroes.6926
                0x080217dc       0x10 c:/program files/gnu tools arm embedded/4.9 2015q2/bin/../lib/gcc/arm-none-eabi/4.9.3/../../../../arm-none-eabi/lib/armv7e-m/softfp\libg.a(lib_a-vfprintf.o)
 .rodata.str1.4
                0x00000000       0x42 c:/program files/gnu tools arm embedded/4.9 2015q2/bin/../lib/gcc/arm-none-eabi/4.9.3/../../../../arm-none-eabi/lib/armv7e-m/softfp\libg.a(lib_a-vfprintf.o)
 .rodata.blanks.6925
                0x080217ec       0x10 c:/program files/gnu tools arm embedded/4.9 2015q2/bin/../lib/gcc/arm-none-eabi/4.9.3/../../../../arm-none-eabi/lib/armv7e-m/softfp\libg.a(lib_a-vfprintf.o)
 .rodata.str1.4
                0x080217fc       0x10 c:/program files/gnu tools arm embedded/4.9 2015q2/bin/../lib/gcc/arm-none-eabi/4.9.3/../../../../arm-none-eabi/lib/armv7e-m/softfp\libg.a(lib_a-dtoa.o)
                                 0x12 (size before relaxing)
 .rodata.str1.4
                0x0802180c        0x2 c:/program files/gnu tools arm embedded/4.9 2015q2/bin/../lib/gcc/arm-none-eabi/4.9.3/../../../../arm-none-eabi/lib/armv7e-m/softfp\libg.a(lib_a-impure.o)
 *fill*         0x0802180e        0x2 
 .rodata.str1.4
                0x08021810        0xc c:/program files/gnu tools arm embedded/4.9 2015q2/bin/../lib/gcc/arm-none-eabi/4.9.3/../../../../arm-none-eabi/lib/armv7e-m/softfp\libg.a(lib_a-locale.o)
                                 0x12 (size before relaxing)
 *fill*         0x0802181c        0x4 
 .rodata.__mprec_tens
                0x08021820       0xc8 c:/program files/gnu tools arm embedded/4.9 2015q2/bin/../lib/gcc/arm-none-eabi/4.9.3/../../../../arm-none-eabi/lib/armv7e-m/softfp\libg.a(lib_a-mprec.o)
                0x08021820                __mprec_tens
 .rodata.p05.5302
                0x080218e8        0xc c:/program files/gnu tools arm embedded/4.9 2015q2/bin/../lib/gcc/arm-none-eabi/4.9.3/../../../../arm-none-eabi/lib/armv7e-m/softfp\libg.a(lib_a-mprec.o)
 *fill*         0x080218f4        0x4 
 .rodata.__mprec_bigtens
                0x080218f8       0x28 c:/program files/gnu tools arm embedded/4.9 2015q2/bin/../lib/gcc/arm-none-eabi/4.9.3/../../../../arm-none-eabi/lib/armv7e-m/softfp\libg.a(lib_a-mprec.o)
                0x080218f8                __mprec_bigtens
 *(.eh_fram e*)
                0x08021920                . = ALIGN (0x4)
                0x08021920                _param_start = .
 *(.param)
 *(.param.*)
                0x08021920                _param_stop = .

.glue_7         0x08021920        0x0
 .glue_7        0x00000000        0x0 linker stubs

.glue_7t        0x08021920        0x0
 .glue_7t       0x00000000        0x0 linker stubs

.vfp11_veneer   0x08021920        0x0
 .vfp11_veneer  0x00000000        0x0 linker stubs

.v4_bx          0x08021920        0x0
 .v4_bx         0x00000000        0x0 linker stubs

.iplt           0x08021920        0x0
 .iplt          0x00000000        0x0 ..\obj\stm32f4xx_syscfg.o

.ARM.extab
 *(.ARM.extab* .gnu.linkonce.armextab.*)
                0x08021920                __exidx_start = .

.ARM.exidx      0x08021920        0x8
 *(.ARM.exidx* .gnu.linkonce.armexidx.*)
 .ARM.exidx     0x08021920        0x8 c:/program files/gnu tools arm embedded/4.9 2015q2/bin/../lib/gcc/arm-none-eabi/4.9.3/armv7e-m/softfp\libgcc.a(_divdi3.o)
 .ARM.exidx     0x08021928        0x0 c:/program files/gnu tools arm embedded/4.9 2015q2/bin/../lib/gcc/arm-none-eabi/4.9.3/armv7e-m/softfp\libgcc.a(_udivdi3.o)
                                  0x8 (size before relaxing)
                0x08021928                __exidx_end = .
                0x08021928                __etext = .
                0x08021928                _sidata = __etext

.rel.dyn        0x08021928        0x0
 .rel.iplt      0x00000000        0x0 ..\obj\stm32f4xx_syscfg.o

.data           0x20000000      0x97c load address 0x08021928
                0x20000000                __data_start__ = .
                0x20000000                _sdata = __data_start__
 *(vtable)
 *(.data*)
 .data          0x20000000       0x84 ..\obj\mb.o
 .data          0x20000084        0x8 ..\obj\tcp.o
 .data          0x2000008c       0x10 ..\obj\stm32f4xx_rcc.o
 .data          0x2000009c        0x4 ..\obj\tasks.o
 .data          0x200000a0       0x14 ..\obj\system_stm32f4xx.o
                0x200000a0                SystemCoreClock
                0x200000a4                AHBPrescTable
 .data          0x200000b4       0x10 ..\obj\portother.o
 .data          0x200000c4        0x4 ..\obj\port.o
 .data          0x200000c8        0x5 ..\obj\mbinit.o
 *fill*         0x200000cd        0x1 
 .data          0x200000ce        0x2 ..\obj\udp.o
 .data          0x200000d0        0x4 ..\obj\dhcp.o
 .data          0x200000d4        0x4 ..\obj\mbfunc.o
 .data          0x200000d8        0x4 ..\obj\heap_2.o
 *fill*         0x200000dc        0x4 
 .data.impure_data
                0x200000e0      0x428 c:/program files/gnu tools arm embedded/4.9 2015q2/bin/../lib/gcc/arm-none-eabi/4.9.3/../../../../arm-none-eabi/lib/armv7e-m/softfp\libg.a(lib_a-impure.o)
 .data._impure_ptr
                0x20000508        0x4 c:/program files/gnu tools arm embedded/4.9 2015q2/bin/../lib/gcc/arm-none-eabi/4.9.3/../../../../arm-none-eabi/lib/armv7e-m/softfp\libg.a(lib_a-impure.o)
                0x20000508                _impure_ptr
 .data.lconv    0x2000050c       0x38 c:/program files/gnu tools arm embedded/4.9 2015q2/bin/../lib/gcc/arm-none-eabi/4.9.3/../../../../arm-none-eabi/lib/armv7e-m/softfp\libg.a(lib_a-locale.o)
 .data.lc_ctype_charset
                0x20000544       0x20 c:/program files/gnu tools arm embedded/4.9 2015q2/bin/../lib/gcc/arm-none-eabi/4.9.3/../../../../arm-none-eabi/lib/armv7e-m/softfp\libg.a(lib_a-locale.o)
 .data.__mb_cur_max
                0x20000564        0x4 c:/program files/gnu tools arm embedded/4.9 2015q2/bin/../lib/gcc/arm-none-eabi/4.9.3/../../../../arm-none-eabi/lib/armv7e-m/softfp\libg.a(lib_a-locale.o)
                0x20000564                __mb_cur_max
 .data.__malloc_av_
                0x20000568      0x408 c:/program files/gnu tools arm embedded/4.9 2015q2/bin/../lib/gcc/arm-none-eabi/4.9.3/../../../../arm-none-eabi/lib/armv7e-m/softfp\libg.a(lib_a-mallocr.o)
                0x20000568                __malloc_av_
 .data.__malloc_trim_threshold
                0x20000970        0x4 c:/program files/gnu tools arm embedded/4.9 2015q2/bin/../lib/gcc/arm-none-eabi/4.9.3/../../../../arm-none-eabi/lib/armv7e-m/softfp\libg.a(lib_a-mallocr.o)
                0x20000970                __malloc_trim_threshold
 .data.__malloc_sbrk_base
                0x20000974        0x4 c:/program files/gnu tools arm embedded/4.9 2015q2/bin/../lib/gcc/arm-none-eabi/4.9.3/../../../../arm-none-eabi/lib/armv7e-m/softfp\libg.a(lib_a-mallocr.o)
                0x20000974                __malloc_sbrk_base
 .data.__wctomb
                0x20000978        0x4 c:/program files/gnu tools arm embedded/4.9 2015q2/bin/../lib/gcc/arm-none-eabi/4.9.3/../../../../arm-none-eabi/lib/armv7e-m/softfp\libg.a(lib_a-wctomb_r.o)
                0x20000978                __wctomb
                0x2000097c                . = ALIGN (0x4)
                0x2000097c                PROVIDE (__preinit_array_start, .)
 *(.preinit_array)
                0x2000097c                PROVIDE (__preinit_array_end, .)
                0x2000097c                . = ALIGN (0x4)
                0x2000097c                PROVIDE (__init_array_start, .)
 *(SORT(.init_array.*))
 *(.init_array)
                0x2000097c                PROVIDE (__init_array_end, .)
                0x2000097c                . = ALIGN (0x4)
                0x2000097c                PROVIDE (__fini_array_start, .)
 *(SORT(.fini_array.*))
 *(.fini_array)
                0x2000097c                PROVIDE (__fini_array_end, .)
 *(.jcr*)
                0x2000097c                . = ALIGN (0x4)
                0x2000097c                __data_end__ = .
                0x2000097c                _edata = __data_end__

.igot.plt       0x2000097c        0x0 load address 0x080222a4
 .igot.plt      0x00000000        0x0 ..\obj\stm32f4xx_syscfg.o

.bss            0x20000980    0x1ce84 load address 0x080222a8
                0x20000980                . = ALIGN (0x4)
                0x20000980                __bss_start__ = .
                0x20000980                _sbss = __bss_start__
 *(.bss*)
 .bss           0x20000980       0x10 ..\obj\mem.o
 .bss           0x20000990       0x24 ..\obj\mb.o
 .bss           0x200009b4        0x2 ..\obj\tcp.o
 *fill*         0x200009b6        0x2 
 .bss           0x200009b8        0x4 ..\obj\portevent.o
 .bss           0x200009bc      0x112 ..\obj\porttcp.o
 *fill*         0x20000ace        0x2 
 .bss           0x20000ad0       0x22 ..\obj\mbfuncother.o
 *fill*         0x20000af2        0x2 
 .bss           0x20000af4       0x2c ..\obj\tcp_in.o
 .bss           0x20000b20     0x2a97 ..\obj\memp.o
 *fill*         0x200035b7        0x1 
 .bss           0x200035b8        0xc ..\obj\tcpip.o
 .bss           0x200035c4        0x8 ..\obj\timers.o
 .bss           0x200035cc        0x4 ..\obj\stm32f4x7_eth_bsp.o
                0x200035cc                EthInitStatus
 .bss           0x200035d0        0xc ..\obj\ethernetif.o
                0x200035d4                s_xSemaphore
 .bss           0x200035dc       0xc9 ..\obj\etharp.o
 *fill*         0x200036a5        0x3 
 .bss           0x200036a8       0xfc ..\obj\tasks.o
                0x200036a8                pxCurrentTCB
 *fill*         0x200037a4        0x4 
 .bss           0x200037a8       0x10 ..\obj\adc_dcmi.o
                0x200037a8                timestamp
                0x200037b0                xAdcBuf_Send_Semaphore
 .bss           0x200037b8        0x1 ..\obj\netif.o
 *fill*         0x200037b9        0x3 
 .bss           0x200037bc        0x4 ..\obj\sys_arch.o
                0x200037bc                xInsideISR
 .bss           0x200037c0        0x4 ..\obj\syscalls.o
 .bss           0x200037c4      0x204 ..\obj\portother.o
 .bss           0x200039c8        0x8 ..\obj\port.o
 .bss           0x200039d0        0x4 ..\obj\cfg_info.o
 .bss           0x200039d4        0x2 ..\obj\ip.o
 .bss           0x200039d6        0x2 ..\obj\udp_send.o
                0x200039d6                adc_buf_offset
 .bss           0x200039d8       0x28 ..\obj\mbfunc.o
 .bss           0x20003a00     0xc814 ..\obj\heap_2.o
 .bss           0x20010214        0x4 ..\obj\raw.o
 .bss.__malloc_max_total_mem
                0x20010218        0x4 c:/program files/gnu tools arm embedded/4.9 2015q2/bin/../lib/gcc/arm-none-eabi/4.9.3/../../../../arm-none-eabi/lib/armv7e-m/softfp\libg.a(lib_a-mallocr.o)
                0x20010218                __malloc_max_total_mem
 .bss.__malloc_max_sbrked_mem
                0x2001021c        0x4 c:/program files/gnu tools arm embedded/4.9 2015q2/bin/../lib/gcc/arm-none-eabi/4.9.3/../../../../arm-none-eabi/lib/armv7e-m/softfp\libg.a(lib_a-mallocr.o)
                0x2001021c                __malloc_max_sbrked_mem
 .bss.__malloc_top_pad
                0x20010220        0x4 c:/program files/gnu tools arm embedded/4.9 2015q2/bin/../lib/gcc/arm-none-eabi/4.9.3/../../../../arm-none-eabi/lib/armv7e-m/softfp\libg.a(lib_a-mallocr.o)
                0x20010220                __malloc_top_pad
 .bss.__malloc_current_mallinfo
                0x20010224       0x28 c:/program files/gnu tools arm embedded/4.9 2015q2/bin/../lib/gcc/arm-none-eabi/4.9.3/../../../../arm-none-eabi/lib/armv7e-m/softfp\libg.a(lib_a-mallocr.o)
                0x20010224                __malloc_current_mallinfo
 *(COMMON)
 COMMON         0x2001024c     0x1414 ..\obj\mem.o
                0x2001024c                ram_heap
 COMMON         0x20011660       0x1c ..\obj\tcp.o
                0x20011660                tcp_active_pcbs_changed
                0x20011664                tcp_active_pcbs
                0x20011668                tcp_ticks
                0x2001166c                tcp_listen_pcbs
                0x20011670                tcp_tmp_pcb
                0x20011674                tcp_bound_pcbs
                0x20011678                tcp_tw_pcbs
 COMMON         0x2001167c        0x4 ..\obj\tcp_in.o
                0x2001167c                tcp_input_pcb
 COMMON         0x20011680     0x3ce4 ..\obj\stm32f4x7_eth.o
                0x20011680                RX_Frame_Descriptor
                0x2001168c                DMARxDescToGet
                0x20011690                DMATxDescToSet
                0x20011694                DMATxDscrTab
                0x20011734                Rx_Buff
                0x200134f8                Frame_Rx_index
                0x200134fc                DMA_RX_FRAME_infos
                0x20013500                DMARxDscrTab
                0x200135a0                Tx_Buff
 COMMON         0x20015364       0x34 ..\obj\main.o
                0x20015364                xnetif
 COMMON         0x20015398     0x8018 ..\obj\adc_dcmi.o
                0x20015398                ADC_last_data
                0x200153a8                xADC_MB_Queue
                0x200153ac                ADC_buf_pnt
                0x200153b0                DCMIAdcRxBuff
 COMMON         0x2001d3b0        0x8 ..\obj\netif.o
                0x2001d3b0                netif_list
                0x2001d3b4                netif_default
 COMMON         0x2001d3b8       0x1c ..\obj\cfg_info.o
                0x2001d3b8                configInfo
 COMMON         0x2001d3d4        0x4 ..\obj\udp.o
                0x2001d3d4                udp_pcbs
 COMMON         0x2001d3d8       0x10 ..\obj\ip.o
                0x2001d3d8                current_iphdr_src
                0x2001d3dc                current_netif
                0x2001d3e0                current_iphdr_dest
                0x2001d3e4                current_header
 COMMON         0x2001d3e8      0x415 ..\obj\udp_send.o
                0x2001d3e8                client_pcb
                0x2001d3ec                DestIPaddr
                0x2001d3f0                pb
                0x2001d3f4                UDPPacket
 *fill*         0x2001d7fd        0x3 
 COMMON         0x2001d800        0x4 c:/program files/gnu tools arm embedded/4.9 2015q2/bin/../lib/gcc/arm-none-eabi/4.9.3/../../../../arm-none-eabi/lib/armv7e-m/softfp\libg.a(lib_a-reent.o)
                0x2001d800                errno
                0x2001d804                . = ALIGN (0x4)
                0x2001d804                __bss_end__ = .
                0x2001d804                _ebss = __bss_end__

.heap           0x2001d804        0x0
                0x2001d804                __end__ = .
                0x2001d804                _end = __end__
                0x2001d804                end = __end__
 *(.heap*)
                0x2001d804                __HeapLimit = .

.co_stack       0x2001d804      0x804 load address 0x0803f12c
                0x2001d808                . = ALIGN (0x8)
 *fill*         0x2001d804        0x4 
 *(.co_stack .co_stack.*)
 .co_stack      0x2001d808      0x800 ..\obj\startup_stm32f4xx.o
                0x2001d808                pulStack
                0x20020000                __StackTop = (ORIGIN (ram) + 0x20000)
                0x2001f7fc                __StackLimit = (__StackTop - SIZEOF (.co_stack))
                0x20020000                PROVIDE (__stack, __StackTop)
                0x00000001                ASSERT ((__StackLimit >= __HeapLimit), region ram  overflowed with stack)
LOAD ..\obj\stm32f4xx_syscfg.o
LOAD ..\obj\mem.o
LOAD ..\obj\stm32f4xx_sdio.o
LOAD ..\obj\mb.o
LOAD ..\obj\mbfuncdisc.o
LOAD ..\obj\tcp.o
LOAD ..\obj\err.o
LOAD ..\obj\portevent.o
LOAD ..\obj\porttcp.o
LOAD ..\obj\randm.o
LOAD ..\obj\mib_structs.o
LOAD ..\obj\mbfuncother.o
LOAD ..\obj\tcp_in.o
LOAD ..\obj\stm32f4xx_usart.o
LOAD ..\obj\stm32f4xx_pwr.o
LOAD ..\obj\slipif.o
LOAD ..\obj\memp.o
LOAD ..\obj\autoip.o
LOAD ..\obj\ip_frag.o
LOAD ..\obj\msg_out.o
LOAD ..\obj\netbuf.o
LOAD ..\obj\tcpip.o
LOAD ..\obj\mbutils.o
LOAD ..\obj\stm32f4xx_dac.o
LOAD ..\obj\asn1_dec.o
LOAD ..\obj\lcp.o
LOAD ..\obj\vj.o
LOAD ..\obj\startup_stm32f4xx.o
LOAD ..\obj\stm32f4x7_eth.o
LOAD ..\obj\sys.o
LOAD ..\obj\ip_addr.o
LOAD ..\obj\mbfuncholding.o
LOAD ..\obj\inet_chksum.o
LOAD ..\obj\main.o
LOAD ..\obj\mbcrc.o
LOAD ..\obj\stm32f4xx_rcc.o
LOAD ..\obj\mib2.o
LOAD ..\obj\stm32f4xx_it.o
LOAD ..\obj\netdb.o
LOAD ..\obj\timers.o
LOAD ..\obj\init.o
LOAD ..\obj\stm32f4xx_adc.o
LOAD ..\obj\stm32f4x7_eth_bsp.o
LOAD ..\obj\mbfuncinput.o
LOAD ..\obj\def.o
LOAD ..\obj\ethernetif.o
LOAD ..\obj\stm32f4xx_dcmi.o
LOAD ..\obj\chpms.o
LOAD ..\obj\etharp.o
LOAD ..\obj\mbfuncdiag.o
LOAD ..\obj\tasks.o
LOAD ..\obj\magic.o
LOAD ..\obj\pbuf.o
LOAD ..\obj\stats.o
LOAD ..\obj\inet.o
LOAD ..\obj\adc_dcmi.o
LOAD ..\obj\msg_in.o
LOAD ..\obj\netif.o
LOAD ..\obj\asn1_enc.o
LOAD ..\obj\fsm.o
LOAD ..\obj\api_msg.o
LOAD ..\obj\chap.o
LOAD ..\obj\stm32f4xx_gpio.o
LOAD ..\obj\stm32f4xx_flash.o
LOAD ..\obj\md5.o
LOAD ..\obj\sys_arch.o
LOAD ..\obj\list.o
LOAD ..\obj\mbrtu.o
LOAD ..\obj\system_stm32f4xx.o
LOAD ..\obj\syscalls.o
LOAD ..\obj\stm32f4xx_dma.o
LOAD ..\obj\portother.o
LOAD ..\obj\queue.o
LOAD ..\obj\port.o
LOAD ..\obj\sockets.o
LOAD ..\obj\igmp.o
LOAD ..\obj\pap.o
LOAD ..\obj\mbinit.o
LOAD ..\obj\cfg_info.o
LOAD ..\obj\croutine.o
LOAD ..\obj\udp.o
LOAD ..\obj\ip.o
LOAD ..\obj\stm32f4xx_spi.o
LOAD ..\obj\mbfunccoils.o
LOAD ..\obj\event_groups.o
LOAD ..\obj\auth.o
LOAD ..\obj\stm32f4xx_exti.o
LOAD ..\obj\icmp.o
LOAD ..\obj\ppp_oe.o
LOAD ..\obj\dns.o
LOAD ..\obj\netifapi.o
LOAD ..\obj\misc.o
LOAD ..\obj\api_lib.o
LOAD ..\obj\udp_send.o
LOAD ..\obj\mbtcp.o
LOAD ..\obj\dhcp.o
LOAD ..\obj\ppp.o
LOAD ..\obj\mbascii.o
LOAD ..\obj\mbfunc.o
LOAD ..\obj\heap_2.o
LOAD ..\obj\http_server.o
LOAD ..\obj\ipcp.o
LOAD ..\obj\stm32f4xx_tim.o
LOAD ..\obj\tcp_out.o
LOAD ..\obj\raw.o
START GROUP
LOAD c:/program files/gnu tools arm embedded/4.9 2015q2/bin/../lib/gcc/arm-none-eabi/4.9.3/armv7e-m/softfp\libgcc.a
LOAD c:/program files/gnu tools arm embedded/4.9 2015q2/bin/../lib/gcc/arm-none-eabi/4.9.3/../../../../arm-none-eabi/lib/armv7e-m/softfp\libg.a
LOAD c:/program files/gnu tools arm embedded/4.9 2015q2/bin/../lib/gcc/arm-none-eabi/4.9.3/../../../../arm-none-eabi/lib/armv7e-m/softfp\libc.a
END GROUP
OUTPUT(LAN8720.elf elf32-littlearm)

.debug_info     0x00000000    0x1ad2b
 .debug_info    0x00000000      0x26c ..\obj\stm32f4xx_syscfg.o
 .debug_info    0x0000026c      0x370 ..\obj\mem.o
 .debug_info    0x000005dc      0x5ce ..\obj\mb.o
 .debug_info    0x00000baa      0x1b2 ..\obj\mbfuncdisc.o
 .debug_info    0x00000d5c     0x1372 ..\obj\tcp.o
 .debug_info    0x000020ce      0x197 ..\obj\portevent.o
 .debug_info    0x00002265      0x859 ..\obj\porttcp.o
 .debug_info    0x00002abe      0x215 ..\obj\mbfuncother.o
 .debug_info    0x00002cd3      0xc9a ..\obj\tcp_in.o
 .debug_info    0x0000396d      0x261 ..\obj\memp.o
 .debug_info    0x00003bce      0xb4d ..\obj\tcpip.o
 .debug_info    0x0000471b      0x273 ..\obj\mbutils.o
 .debug_info    0x0000498e       0xed ..\obj\startup_stm32f4xx.o
 .debug_info    0x00004a7b     0x190d ..\obj\stm32f4x7_eth.o
 .debug_info    0x00006388      0x540 ..\obj\ip_addr.o
 .debug_info    0x000068c8      0x33b ..\obj\mbfuncholding.o
 .debug_info    0x00006c03      0x39b ..\obj\inet_chksum.o
 .debug_info    0x00006f9e      0x72b ..\obj\main.o
 .debug_info    0x000076c9      0xc4d ..\obj\stm32f4xx_rcc.o
 .debug_info    0x00008316      0x181 ..\obj\stm32f4xx_it.o
 .debug_info    0x00008497      0x8ca ..\obj\timers.o
 .debug_info    0x00008d61       0x88 ..\obj\init.o
 .debug_info    0x00008de9      0x817 ..\obj\stm32f4x7_eth_bsp.o
 .debug_info    0x00009600      0x1a4 ..\obj\mbfuncinput.o
 .debug_info    0x000097a4       0xfd ..\obj\def.o
 .debug_info    0x000098a1      0xb18 ..\obj\ethernetif.o
 .debug_info    0x0000a3b9      0x54c ..\obj\stm32f4xx_dcmi.o
 .debug_info    0x0000a905      0xdea ..\obj\etharp.o
 .debug_info    0x0000b6ef     0x1b85 ..\obj\tasks.o
 .debug_info    0x0000d274      0x857 ..\obj\pbuf.o
 .debug_info    0x0000dacb      0xc54 ..\obj\adc_dcmi.o
 .debug_info    0x0000e71f      0xe45 ..\obj\netif.o
 .debug_info    0x0000f564      0x602 ..\obj\stm32f4xx_gpio.o
 .debug_info    0x0000fb66      0x722 ..\obj\stm32f4xx_flash.o
 .debug_info    0x00010288      0x6c3 ..\obj\sys_arch.o
 .debug_info    0x0001094b      0x299 ..\obj\list.o
 .debug_info    0x00010be4      0x592 ..\obj\system_stm32f4xx.o
 .debug_info    0x00011176      0x3ee ..\obj\syscalls.o
 .debug_info    0x00011564      0x739 ..\obj\stm32f4xx_dma.o
 .debug_info    0x00011c9d      0x2ad ..\obj\portother.o
 .debug_info    0x00011f4a     0x10ec ..\obj\queue.o
 .debug_info    0x00013036      0x52b ..\obj\port.o
 .debug_info    0x00013561       0xef ..\obj\mbinit.o
 .debug_info    0x00013650      0x328 ..\obj\cfg_info.o
 .debug_info    0x00013978      0xb4c ..\obj\udp.o
 .debug_info    0x000144c4      0x92d ..\obj\ip.o
 .debug_info    0x00014df1      0x2cf ..\obj\mbfunccoils.o
 .debug_info    0x000150c0      0x5af ..\obj\icmp.o
 .debug_info    0x0001566f      0x53d ..\obj\misc.o
 .debug_info    0x00015bac      0x4d1 ..\obj\udp_send.o
 .debug_info    0x0001607d      0x22b ..\obj\mbtcp.o
 .debug_info    0x000162a8     0x1062 ..\obj\dhcp.o
 .debug_info    0x0001730a      0x3f4 ..\obj\mbfunc.o
 .debug_info    0x000176fe      0x2d8 ..\obj\heap_2.o
 .debug_info    0x000179d6     0x1c61 ..\obj\stm32f4xx_tim.o
 .debug_info    0x00019637      0xfe4 ..\obj\tcp_out.o
 .debug_info    0x0001a61b      0x710 ..\obj\raw.o

.debug_abbrev   0x00000000     0x50c4
 .debug_abbrev  0x00000000      0x131 ..\obj\stm32f4xx_syscfg.o
 .debug_abbrev  0x00000131      0x137 ..\obj\mem.o
 .debug_abbrev  0x00000268      0x15b ..\obj\mb.o
 .debug_abbrev  0x000003c3       0x8c ..\obj\mbfuncdisc.o
 .debug_abbrev  0x0000044f      0x2c9 ..\obj\tcp.o
 .debug_abbrev  0x00000718       0xad ..\obj\portevent.o
 .debug_abbrev  0x000007c5      0x21a ..\obj\porttcp.o
 .debug_abbrev  0x000009df       0xa7 ..\obj\mbfuncother.o
 .debug_abbrev  0x00000a86      0x205 ..\obj\tcp_in.o
 .debug_abbrev  0x00000c8b      0x11c ..\obj\memp.o
 .debug_abbrev  0x00000da7      0x1f1 ..\obj\tcpip.o
 .debug_abbrev  0x00000f98       0xc2 ..\obj\mbutils.o
 .debug_abbrev  0x0000105a       0xb0 ..\obj\startup_stm32f4xx.o
 .debug_abbrev  0x0000110a      0x240 ..\obj\stm32f4x7_eth.o
 .debug_abbrev  0x0000134a      0x19f ..\obj\ip_addr.o
 .debug_abbrev  0x000014e9       0xa8 ..\obj\mbfuncholding.o
 .debug_abbrev  0x00001591      0x12b ..\obj\inet_chksum.o
 .debug_abbrev  0x000016bc      0x156 ..\obj\main.o
 .debug_abbrev  0x00001812      0x1e3 ..\obj\stm32f4xx_rcc.o
 .debug_abbrev  0x000019f5       0xc5 ..\obj\stm32f4xx_it.o
 .debug_abbrev  0x00001aba      0x1a1 ..\obj\timers.o
 .debug_abbrev  0x00001c5b       0x40 ..\obj\init.o
 .debug_abbrev  0x00001c9b      0x14d ..\obj\stm32f4x7_eth_bsp.o
 .debug_abbrev  0x00001de8       0x8c ..\obj\mbfuncinput.o
 .debug_abbrev  0x00001e74       0x96 ..\obj\def.o
 .debug_abbrev  0x00001f0a      0x23c ..\obj\ethernetif.o
 .debug_abbrev  0x00002146      0x187 ..\obj\stm32f4xx_dcmi.o
 .debug_abbrev  0x000022cd      0x204 ..\obj\etharp.o
 .debug_abbrev  0x000024d1      0x27c ..\obj\tasks.o
 .debug_abbrev  0x0000274d      0x1a8 ..\obj\pbuf.o
 .debug_abbrev  0x000028f5      0x1a4 ..\obj\adc_dcmi.o
 .debug_abbrev  0x00002a99      0x241 ..\obj\netif.o
 .debug_abbrev  0x00002cda      0x1a3 ..\obj\stm32f4xx_gpio.o
 .debug_abbrev  0x00002e7d      0x1ae ..\obj\stm32f4xx_flash.o
 .debug_abbrev  0x0000302b      0x1a0 ..\obj\sys_arch.o
 .debug_abbrev  0x000031cb       0xbc ..\obj\list.o
 .debug_abbrev  0x00003287      0x136 ..\obj\system_stm32f4xx.o
 .debug_abbrev  0x000033bd       0xe2 ..\obj\syscalls.o
 .debug_abbrev  0x0000349f      0x155 ..\obj\stm32f4xx_dma.o
 .debug_abbrev  0x000035f4      0x14b ..\obj\portother.o
 .debug_abbrev  0x0000373f      0x1ee ..\obj\queue.o
 .debug_abbrev  0x0000392d      0x1cc ..\obj\port.o
 .debug_abbrev  0x00003af9       0x9e ..\obj\mbinit.o
 .debug_abbrev  0x00003b97      0x182 ..\obj\cfg_info.o
 .debug_abbrev  0x00003d19      0x21d ..\obj\udp.o
 .debug_abbrev  0x00003f36      0x186 ..\obj\ip.o
 .debug_abbrev  0x000040bc       0xba ..\obj\mbfunccoils.o
 .debug_abbrev  0x00004176      0x1ab ..\obj\icmp.o
 .debug_abbrev  0x00004321      0x145 ..\obj\misc.o
 .debug_abbrev  0x00004466      0x184 ..\obj\udp_send.o
 .debug_abbrev  0x000045ea       0xdf ..\obj\mbtcp.o
 .debug_abbrev  0x000046c9      0x200 ..\obj\dhcp.o
 .debug_abbrev  0x000048c9      0x117 ..\obj\mbfunc.o
 .debug_abbrev  0x000049e0      0x150 ..\obj\heap_2.o
 .debug_abbrev  0x00004b30      0x187 ..\obj\stm32f4xx_tim.o
 .debug_abbrev  0x00004cb7      0x247 ..\obj\tcp_out.o
 .debug_abbrev  0x00004efe      0x1c6 ..\obj\raw.o

.debug_aranges  0x00000000     0x1c80
 .debug_aranges
                0x00000000       0x48 ..\obj\stm32f4xx_syscfg.o
 .debug_aranges
                0x00000048       0x48 ..\obj\mem.o
 .debug_aranges
                0x00000090       0x50 ..\obj\mb.o
 .debug_aranges
                0x000000e0       0x20 ..\obj\mbfuncdisc.o
 .debug_aranges
                0x00000100      0x138 ..\obj\tcp.o
 .debug_aranges
                0x00000238       0x38 ..\obj\portevent.o
 .debug_aranges
                0x00000270       0x60 ..\obj\porttcp.o
 .debug_aranges
                0x000002d0       0x28 ..\obj\mbfuncother.o
 .debug_aranges
                0x000002f8       0x48 ..\obj\tcp_in.o
 .debug_aranges
                0x00000340       0x30 ..\obj\memp.o
 .debug_aranges
                0x00000370       0x80 ..\obj\tcpip.o
 .debug_aranges
                0x000003f0       0x30 ..\obj\mbutils.o
 .debug_aranges
                0x00000420       0x28 ..\obj\startup_stm32f4xx.o
 .debug_aranges
                0x00000448      0x2b8 ..\obj\stm32f4x7_eth.o
 .debug_aranges
                0x00000700       0x48 ..\obj\ip_addr.o
 .debug_aranges
                0x00000748       0x38 ..\obj\mbfuncholding.o
 .debug_aranges
                0x00000780       0x40 ..\obj\inet_chksum.o
 .debug_aranges
                0x000007c0       0x30 ..\obj\main.o
 .debug_aranges
                0x000007f0      0x178 ..\obj\stm32f4xx_rcc.o
 .debug_aranges
                0x00000968       0x50 ..\obj\stm32f4xx_it.o
 .debug_aranges
                0x000009b8       0x60 ..\obj\timers.o
 .debug_aranges
                0x00000a18       0x20 ..\obj\init.o
 .debug_aranges
                0x00000a38       0x38 ..\obj\stm32f4x7_eth_bsp.o
 .debug_aranges
                0x00000a70       0x20 ..\obj\mbfuncinput.o
 .debug_aranges
                0x00000a90       0x38 ..\obj\def.o
 .debug_aranges
                0x00000ac8       0x48 ..\obj\ethernetif.o
 .debug_aranges
                0x00000b10       0x90 ..\obj\stm32f4xx_dcmi.o
 .debug_aranges
                0x00000ba0       0x88 ..\obj\etharp.o
 .debug_aranges
                0x00000c28      0x1a8 ..\obj\tasks.o
 .debug_aranges
                0x00000dd0       0xa0 ..\obj\pbuf.o
 .debug_aranges
                0x00000e70       0x50 ..\obj\adc_dcmi.o
 .debug_aranges
                0x00000ec0       0x80 ..\obj\netif.o
 .debug_aranges
                0x00000f40       0x88 ..\obj\stm32f4xx_gpio.o
 .debug_aranges
                0x00000fc8      0x108 ..\obj\stm32f4xx_flash.o
 .debug_aranges
                0x000010d0       0xb8 ..\obj\sys_arch.o
 .debug_aranges
                0x00001188       0x40 ..\obj\list.o
 .debug_aranges
                0x000011c8       0x30 ..\obj\system_stm32f4xx.o
 .debug_aranges
                0x000011f8       0x60 ..\obj\syscalls.o
 .debug_aranges
                0x00001258       0xb0 ..\obj\stm32f4xx_dma.o
 .debug_aranges
                0x00001308       0x50 ..\obj\portother.o
 .debug_aranges
                0x00001358       0xe8 ..\obj\queue.o
 .debug_aranges
                0x00001440       0x80 ..\obj\port.o
 .debug_aranges
                0x000014c0       0x28 ..\obj\mbinit.o
 .debug_aranges
                0x000014e8       0x48 ..\obj\cfg_info.o
 .debug_aranges
                0x00001530       0x78 ..\obj\udp.o
 .debug_aranges
                0x000015a8       0x38 ..\obj\ip.o
 .debug_aranges
                0x000015e0       0x30 ..\obj\mbfunccoils.o
 .debug_aranges
                0x00001610       0x30 ..\obj\icmp.o
 .debug_aranges
                0x00001640       0x40 ..\obj\misc.o
 .debug_aranges
                0x00001680       0x38 ..\obj\udp_send.o
 .debug_aranges
                0x000016b8       0x40 ..\obj\mbtcp.o
 .debug_aranges
                0x000016f8      0x128 ..\obj\dhcp.o
 .debug_aranges
                0x00001820       0x38 ..\obj\mbfunc.o
 .debug_aranges
                0x00001858       0x40 ..\obj\heap_2.o
 .debug_aranges
                0x00001898      0x2f8 ..\obj\stm32f4xx_tim.o
 .debug_aranges
                0x00001b90       0x98 ..\obj\tcp_out.o
 .debug_aranges
                0x00001c28       0x58 ..\obj\raw.o

.debug_ranges   0x00000000     0x18f0
 .debug_ranges  0x00000000       0x38 ..\obj\stm32f4xx_syscfg.o
 .debug_ranges  0x00000038       0x38 ..\obj\mem.o
 .debug_ranges  0x00000070       0x40 ..\obj\mb.o
 .debug_ranges  0x000000b0       0x10 ..\obj\mbfuncdisc.o
 .debug_ranges  0x000000c0      0x128 ..\obj\tcp.o
 .debug_ranges  0x000001e8       0x28 ..\obj\portevent.o
 .debug_ranges  0x00000210       0x50 ..\obj\porttcp.o
 .debug_ranges  0x00000260       0x18 ..\obj\mbfuncother.o
 .debug_ranges  0x00000278       0x38 ..\obj\tcp_in.o
 .debug_ranges  0x000002b0       0x20 ..\obj\memp.o
 .debug_ranges  0x000002d0       0x70 ..\obj\tcpip.o
 .debug_ranges  0x00000340       0x20 ..\obj\mbutils.o
 .debug_ranges  0x00000360       0x18 ..\obj\startup_stm32f4xx.o
 .debug_ranges  0x00000378      0x2a8 ..\obj\stm32f4x7_eth.o
 .debug_ranges  0x00000620       0x38 ..\obj\ip_addr.o
 .debug_ranges  0x00000658       0x28 ..\obj\mbfuncholding.o
 .debug_ranges  0x00000680       0x30 ..\obj\inet_chksum.o
 .debug_ranges  0x000006b0       0x20 ..\obj\main.o
 .debug_ranges  0x000006d0      0x168 ..\obj\stm32f4xx_rcc.o
 .debug_ranges  0x00000838       0x40 ..\obj\stm32f4xx_it.o
 .debug_ranges  0x00000878       0x50 ..\obj\timers.o
 .debug_ranges  0x000008c8       0x10 ..\obj\init.o
 .debug_ranges  0x000008d8       0x28 ..\obj\stm32f4x7_eth_bsp.o
 .debug_ranges  0x00000900       0x10 ..\obj\mbfuncinput.o
 .debug_ranges  0x00000910       0x28 ..\obj\def.o
 .debug_ranges  0x00000938       0x38 ..\obj\ethernetif.o
 .debug_ranges  0x00000970       0x80 ..\obj\stm32f4xx_dcmi.o
 .debug_ranges  0x000009f0       0x78 ..\obj\etharp.o
 .debug_ranges  0x00000a68      0x198 ..\obj\tasks.o
 .debug_ranges  0x00000c00       0x90 ..\obj\pbuf.o
 .debug_ranges  0x00000c90       0x40 ..\obj\adc_dcmi.o
 .debug_ranges  0x00000cd0       0x70 ..\obj\netif.o
 .debug_ranges  0x00000d40       0x78 ..\obj\stm32f4xx_gpio.o
 .debug_ranges  0x00000db8       0xf8 ..\obj\stm32f4xx_flash.o
 .debug_ranges  0x00000eb0       0xa8 ..\obj\sys_arch.o
 .debug_ranges  0x00000f58       0x30 ..\obj\list.o
 .debug_ranges  0x00000f88       0x20 ..\obj\system_stm32f4xx.o
 .debug_ranges  0x00000fa8       0x50 ..\obj\syscalls.o
 .debug_ranges  0x00000ff8       0xa0 ..\obj\stm32f4xx_dma.o
 .debug_ranges  0x00001098       0x40 ..\obj\portother.o
 .debug_ranges  0x000010d8       0xd8 ..\obj\queue.o
 .debug_ranges  0x000011b0       0x70 ..\obj\port.o
 .debug_ranges  0x00001220       0x18 ..\obj\mbinit.o
 .debug_ranges  0x00001238       0x38 ..\obj\cfg_info.o
 .debug_ranges  0x00001270       0x68 ..\obj\udp.o
 .debug_ranges  0x000012d8       0x28 ..\obj\ip.o
 .debug_ranges  0x00001300       0x20 ..\obj\mbfunccoils.o
 .debug_ranges  0x00001320       0x20 ..\obj\icmp.o
 .debug_ranges  0x00001340       0x30 ..\obj\misc.o
 .debug_ranges  0x00001370       0x28 ..\obj\udp_send.o
 .debug_ranges  0x00001398       0x30 ..\obj\mbtcp.o
 .debug_ranges  0x000013c8      0x118 ..\obj\dhcp.o
 .debug_ranges  0x000014e0       0x28 ..\obj\mbfunc.o
 .debug_ranges  0x00001508       0x30 ..\obj\heap_2.o
 .debug_ranges  0x00001538      0x2e8 ..\obj\stm32f4xx_tim.o
 .debug_ranges  0x00001820       0x88 ..\obj\tcp_out.o
 .debug_ranges  0x000018a8       0x48 ..\obj\raw.o

.debug_line     0x00000000     0xd454
 .debug_line    0x00000000      0x243 ..\obj\stm32f4xx_syscfg.o
 .debug_line    0x00000243      0x2a6 ..\obj\mem.o
 .debug_line    0x000004e9      0x25e ..\obj\mb.o
 .debug_line    0x00000747      0x14b ..\obj\mbfuncdisc.o
 .debug_line    0x00000892      0x7c0 ..\obj\tcp.o
 .debug_line    0x00001052      0x288 ..\obj\portevent.o
 .debug_line    0x000012da      0x2de ..\obj\porttcp.o
 .debug_line    0x000015b8      0x1bb ..\obj\mbfuncother.o
 .debug_line    0x00001773      0x6b9 ..\obj\tcp_in.o
 .debug_line    0x00001e2c      0x194 ..\obj\memp.o
 .debug_line    0x00001fc0      0x447 ..\obj\tcpip.o
 .debug_line    0x00002407      0x1c3 ..\obj\mbutils.o
 .debug_line    0x000025ca       0xaf ..\obj\startup_stm32f4xx.o
 .debug_line    0x00002679      0xb72 ..\obj\stm32f4x7_eth.o
 .debug_line    0x000031eb      0x310 ..\obj\ip_addr.o
 .debug_line    0x000034fb      0x1de ..\obj\mbfuncholding.o
 .debug_line    0x000036d9      0x255 ..\obj\inet_chksum.o
 .debug_line    0x0000392e      0x37b ..\obj\main.o
 .debug_line    0x00003ca9      0x5d9 ..\obj\stm32f4xx_rcc.o
 .debug_line    0x00004282      0x30b ..\obj\stm32f4xx_it.o
 .debug_line    0x0000458d      0x325 ..\obj\timers.o
 .debug_line    0x000048b2       0x85 ..\obj\init.o
 .debug_line    0x00004937      0x333 ..\obj\stm32f4x7_eth_bsp.o
 .debug_line    0x00004c6a      0x141 ..\obj\mbfuncinput.o
 .debug_line    0x00004dab      0x109 ..\obj\def.o
 .debug_line    0x00004eb4      0x506 ..\obj\ethernetif.o
 .debug_line    0x000053ba      0x377 ..\obj\stm32f4xx_dcmi.o
 .debug_line    0x00005731      0x504 ..\obj\etharp.o
 .debug_line    0x00005c35      0xd3e ..\obj\tasks.o
 .debug_line    0x00006973      0x4fc ..\obj\pbuf.o
 .debug_line    0x00006e6f      0x470 ..\obj\adc_dcmi.o
 .debug_line    0x000072df      0x386 ..\obj\netif.o
 .debug_line    0x00007665      0x37b ..\obj\stm32f4xx_gpio.o
 .debug_line    0x000079e0      0x4c0 ..\obj\stm32f4xx_flash.o
 .debug_line    0x00007ea0      0x49e ..\obj\sys_arch.o
 .debug_line    0x0000833e      0x25a ..\obj\list.o
 .debug_line    0x00008598      0x20f ..\obj\system_stm32f4xx.o
 .debug_line    0x000087a7      0x179 ..\obj\syscalls.o
 .debug_line    0x00008920      0x414 ..\obj\stm32f4xx_dma.o
 .debug_line    0x00008d34      0x1a9 ..\obj\portother.o
 .debug_line    0x00008edd      0x92b ..\obj\queue.o
 .debug_line    0x00009808      0x3a4 ..\obj\port.o
 .debug_line    0x00009bac      0x19f ..\obj\mbinit.o
 .debug_line    0x00009d4b      0x2d4 ..\obj\cfg_info.o
 .debug_line    0x0000a01f      0x441 ..\obj\udp.o
 .debug_line    0x0000a460      0x2c5 ..\obj\ip.o
 .debug_line    0x0000a725      0x1b0 ..\obj\mbfunccoils.o
 .debug_line    0x0000a8d5      0x222 ..\obj\icmp.o
 .debug_line    0x0000aaf7      0x27d ..\obj\misc.o
 .debug_line    0x0000ad74      0x3bb ..\obj\udp_send.o
 .debug_line    0x0000b12f      0x169 ..\obj\mbtcp.o
 .debug_line    0x0000b298      0x859 ..\obj\dhcp.o
 .debug_line    0x0000baf1      0x350 ..\obj\mbfunc.o
 .debug_line    0x0000be41      0x2b6 ..\obj\heap_2.o
 .debug_line    0x0000c0f7      0xaa2 ..\obj\stm32f4xx_tim.o
 .debug_line    0x0000cb99      0x5ec ..\obj\tcp_out.o
 .debug_line    0x0000d185      0x2cf ..\obj\raw.o

.debug_str      0x00000000     0x8ef4
 .debug_str     0x00000000      0x2d0 ..\obj\stm32f4xx_syscfg.o
                                0x32e (size before relaxing)
 .debug_str     0x000002d0      0x11d ..\obj\mem.o
                                0x26e (size before relaxing)
 .debug_str     0x000003ed      0x481 ..\obj\mb.o
                                0x5f3 (size before relaxing)
 .debug_str     0x0000086e       0xad ..\obj\mbfuncdisc.o
                                0x357 (size before relaxing)
 .debug_str     0x0000091b      0x77a ..\obj\tcp.o
                                0x9e7 (size before relaxing)
 .debug_str     0x00001095       0xb9 ..\obj\portevent.o
                                0x26d (size before relaxing)
 .debug_str     0x0000114e      0x226 ..\obj\porttcp.o
                                0x693 (size before relaxing)
 .debug_str     0x00001374       0xc4 ..\obj\mbfuncother.o
                                0x380 (size before relaxing)
 .debug_str     0x00001438      0x1a3 ..\obj\tcp_in.o
                                0x7a2 (size before relaxing)
 .debug_str     0x000015db       0x9e ..\obj\memp.o
                                0x2bb (size before relaxing)
 .debug_str     0x00001679      0x400 ..\obj\tcpip.o
                                0x779 (size before relaxing)
 .debug_str     0x00001a79       0xe5 ..\obj\mbutils.o
                                0x38d (size before relaxing)
 .debug_str     0x00001b5e       0xbc ..\obj\startup_stm32f4xx.o
                                0x181 (size before relaxing)
 .debug_str     0x00001c1a     0x126d ..\obj\stm32f4x7_eth.o
                               0x1497 (size before relaxing)
 .debug_str     0x00002e87       0xe7 ..\obj\ip_addr.o
                                0x2dc (size before relaxing)
 .debug_str     0x00002f6e      0x161 ..\obj\mbfuncholding.o
                                0x435 (size before relaxing)
 .debug_str     0x000030cf       0xd9 ..\obj\inet_chksum.o
                                0x27f (size before relaxing)
 .debug_str     0x000031a8      0x202 ..\obj\main.o
                                0x537 (size before relaxing)
 .debug_str     0x000033aa      0x5e9 ..\obj\stm32f4xx_rcc.o
                                0x88a (size before relaxing)
 .debug_str     0x00003993       0xc4 ..\obj\stm32f4xx_it.o
                                0x27d (size before relaxing)
 .debug_str     0x00003a57      0x128 ..\obj\timers.o
                                0x6a2 (size before relaxing)
 .debug_str     0x00003b7f       0x53 ..\obj\init.o
                                0x18f (size before relaxing)
 .debug_str     0x00003bd2      0x7c2 ..\obj\stm32f4x7_eth_bsp.o
                                0xd69 (size before relaxing)
 .debug_str     0x00004394       0x6c ..\obj\mbfuncinput.o
                                0x34b (size before relaxing)
 .debug_str     0x00004400       0x74 ..\obj\def.o
                                0x17c (size before relaxing)
 .debug_str     0x00004474      0x111 ..\obj\ethernetif.o
                                0x754 (size before relaxing)
 .debug_str     0x00004585      0x32e ..\obj\stm32f4xx_dcmi.o
                                0x513 (size before relaxing)
 .debug_str     0x000048b3      0x346 ..\obj\etharp.o
                                0x76e (size before relaxing)
 .debug_str     0x00004bf9      0xc66 ..\obj\tasks.o
                                0xe6d (size before relaxing)
 .debug_str     0x0000585f      0x1f4 ..\obj\pbuf.o
                                0x4c1 (size before relaxing)
 .debug_str     0x00005a53      0x421 ..\obj\adc_dcmi.o
                                0xe8e (size before relaxing)
 .debug_str     0x00005e74      0x139 ..\obj\netif.o
                                0x7a2 (size before relaxing)
 .debug_str     0x00005fad      0x1a4 ..\obj\stm32f4xx_gpio.o
                                0x4dd (size before relaxing)
 .debug_str     0x00006151      0x3cc ..\obj\stm32f4xx_flash.o
                                0x5d1 (size before relaxing)
 .debug_str     0x0000651d      0x267 ..\obj\sys_arch.o
                                0x4b2 (size before relaxing)
 .debug_str     0x00006784       0xd1 ..\obj\list.o
                                0x2d3 (size before relaxing)
 .debug_str     0x00006855       0xf8 ..\obj\system_stm32f4xx.o
                                0x3e4 (size before relaxing)
 .debug_str     0x0000694d      0x151 ..\obj\syscalls.o
                                0x318 (size before relaxing)
 .debug_str     0x00006a9e      0x26a ..\obj\stm32f4xx_dma.o
                                0x57c (size before relaxing)
 .debug_str     0x00006d08      0x176 ..\obj\portother.o
                                0x359 (size before relaxing)
 .debug_str     0x00006e7e      0x3fa ..\obj\queue.o
                                0x75c (size before relaxing)
 .debug_str     0x00007278      0x21a ..\obj\port.o
                                0x446 (size before relaxing)
 .debug_str     0x00007492       0x63 ..\obj\mbinit.o
                                0x1cb (size before relaxing)
 .debug_str     0x000074f5       0xe5 ..\obj\cfg_info.o
                                0x3e7 (size before relaxing)
 .debug_str     0x000075da      0x17d ..\obj\udp.o
                                0x6d7 (size before relaxing)
 .debug_str     0x00007757       0xc9 ..\obj\ip.o
                                0x57c (size before relaxing)
 .debug_str     0x00007820       0xc9 ..\obj\mbfunccoils.o
                                0x3bf (size before relaxing)
 .debug_str     0x000078e9       0xb1 ..\obj\icmp.o
                                0x414 (size before relaxing)
 .debug_str     0x0000799a      0x166 ..\obj\misc.o
                                0x408 (size before relaxing)
 .debug_str     0x00007b00       0xb6 ..\obj\udp_send.o
                                0x492 (size before relaxing)
 .debug_str     0x00007bb6       0xb4 ..\obj\mbtcp.o
                                0x29d (size before relaxing)
 .debug_str     0x00007c6a      0x345 ..\obj\dhcp.o
                                0x7b8 (size before relaxing)
 .debug_str     0x00007faf      0x10f ..\obj\mbfunc.o
                                0x3e1 (size before relaxing)
 .debug_str     0x000080be      0x18b ..\obj\heap_2.o
                                0x31e (size before relaxing)
 .debug_str     0x00008249      0xa0a ..\obj\stm32f4xx_tim.o
                                0xe0a (size before relaxing)
 .debug_str     0x00008c53      0x1e6 ..\obj\tcp_out.o
                                0x834 (size before relaxing)
 .debug_str     0x00008e39       0xbb ..\obj\raw.o
                                0x4ab (size before relaxing)

.comment        0x00000000       0x70
 .comment       0x00000000       0x70 ..\obj\stm32f4xx_syscfg.o
                                 0x71 (size before relaxing)
 .comment       0x00000000       0x71 ..\obj\mem.o
 .comment       0x00000000       0x71 ..\obj\mb.o
 .comment       0x00000000       0x71 ..\obj\mbfuncdisc.o
 .comment       0x00000000       0x71 ..\obj\tcp.o
 .comment       0x00000000       0x71 ..\obj\portevent.o
 .comment       0x00000000       0x71 ..\obj\porttcp.o
 .comment       0x00000000       0x71 ..\obj\mbfuncother.o
 .comment       0x00000000       0x71 ..\obj\tcp_in.o
 .comment       0x00000000       0x71 ..\obj\memp.o
 .comment       0x00000000       0x71 ..\obj\tcpip.o
 .comment       0x00000000       0x71 ..\obj\mbutils.o
 .comment       0x00000000       0x71 ..\obj\startup_stm32f4xx.o
 .comment       0x00000000       0x71 ..\obj\stm32f4x7_eth.o
 .comment       0x00000000       0x71 ..\obj\ip_addr.o
 .comment       0x00000000       0x71 ..\obj\mbfuncholding.o
 .comment       0x00000000       0x71 ..\obj\inet_chksum.o
 .comment       0x00000000       0x71 ..\obj\main.o
 .comment       0x00000000       0x71 ..\obj\stm32f4xx_rcc.o
 .comment       0x00000000       0x71 ..\obj\stm32f4xx_it.o
 .comment       0x00000000       0x71 ..\obj\timers.o
 .comment       0x00000000       0x71 ..\obj\init.o
 .comment       0x00000000       0x71 ..\obj\stm32f4x7_eth_bsp.o
 .comment       0x00000000       0x71 ..\obj\mbfuncinput.o
 .comment       0x00000000       0x71 ..\obj\def.o
 .comment       0x00000000       0x71 ..\obj\ethernetif.o
 .comment       0x00000000       0x71 ..\obj\stm32f4xx_dcmi.o
 .comment       0x00000000       0x71 ..\obj\etharp.o
 .comment       0x00000000       0x71 ..\obj\tasks.o
 .comment       0x00000000       0x71 ..\obj\pbuf.o
 .comment       0x00000000       0x71 ..\obj\adc_dcmi.o
 .comment       0x00000000       0x71 ..\obj\netif.o
 .comment       0x00000000       0x71 ..\obj\stm32f4xx_gpio.o
 .comment       0x00000000       0x71 ..\obj\stm32f4xx_flash.o
 .comment       0x00000000       0x71 ..\obj\sys_arch.o
 .comment       0x00000000       0x71 ..\obj\list.o
 .comment       0x00000000       0x71 ..\obj\system_stm32f4xx.o
 .comment       0x00000000       0x71 ..\obj\syscalls.o
 .comment       0x00000000       0x71 ..\obj\stm32f4xx_dma.o
 .comment       0x00000000       0x71 ..\obj\portother.o
 .comment       0x00000000       0x71 ..\obj\queue.o
 .comment       0x00000000       0x71 ..\obj\port.o
 .comment       0x00000000       0x71 ..\obj\mbinit.o
 .comment       0x00000000       0x71 ..\obj\cfg_info.o
 .comment       0x00000000       0x71 ..\obj\udp.o
 .comment       0x00000000       0x71 ..\obj\ip.o
 .comment       0x00000000       0x71 ..\obj\mbfunccoils.o
 .comment       0x00000000       0x71 ..\obj\icmp.o
 .comment       0x00000000       0x71 ..\obj\misc.o
 .comment       0x00000000       0x71 ..\obj\udp_send.o
 .comment       0x00000000       0x71 ..\obj\mbtcp.o
 .comment       0x00000000       0x71 ..\obj\dhcp.o
 .comment       0x00000000       0x71 ..\obj\mbfunc.o
 .comment       0x00000000       0x71 ..\obj\heap_2.o
 .comment       0x00000000       0x71 ..\obj\stm32f4xx_tim.o
 .comment       0x00000000       0x71 ..\obj\tcp_out.o
 .comment       0x00000000       0x71 ..\obj\raw.o

.ARM.attributes
                0x00000000       0x35
 .ARM.attributes
                0x00000000       0x37 ..\obj\stm32f4xx_syscfg.o
 .ARM.attributes
                0x00000037       0x37 ..\obj\mem.o
 .ARM.attributes
                0x0000006e       0x37 ..\obj\mb.o
 .ARM.attributes
                0x000000a5       0x37 ..\obj\mbfuncdisc.o
 .ARM.attributes
                0x000000dc       0x37 ..\obj\tcp.o
 .ARM.attributes
                0x00000113       0x37 ..\obj\portevent.o
 .ARM.attributes
                0x0000014a       0x37 ..\obj\porttcp.o
 .ARM.attributes
                0x00000181       0x37 ..\obj\mbfuncother.o
 .ARM.attributes
                0x000001b8       0x37 ..\obj\tcp_in.o
 .ARM.attributes
                0x000001ef       0x37 ..\obj\memp.o
 .ARM.attributes
                0x00000226       0x37 ..\obj\tcpip.o
 .ARM.attributes
                0x0000025d       0x37 ..\obj\mbutils.o
 .ARM.attributes
                0x00000294       0x37 ..\obj\startup_stm32f4xx.o
 .ARM.attributes
                0x000002cb       0x37 ..\obj\stm32f4x7_eth.o
 .ARM.attributes
                0x00000302       0x37 ..\obj\ip_addr.o
 .ARM.attributes
                0x00000339       0x37 ..\obj\mbfuncholding.o
 .ARM.attributes
                0x00000370       0x37 ..\obj\inet_chksum.o
 .ARM.attributes
                0x000003a7       0x37 ..\obj\main.o
 .ARM.attributes
                0x000003de       0x37 ..\obj\stm32f4xx_rcc.o
 .ARM.attributes
                0x00000415       0x37 ..\obj\stm32f4xx_it.o
 .ARM.attributes
                0x0000044c       0x37 ..\obj\timers.o
 .ARM.attributes
                0x00000483       0x37 ..\obj\init.o
 .ARM.attributes
                0x000004ba       0x37 ..\obj\stm32f4x7_eth_bsp.o
 .ARM.attributes
                0x000004f1       0x37 ..\obj\mbfuncinput.o
 .ARM.attributes
                0x00000528       0x37 ..\obj\def.o
 .ARM.attributes
                0x0000055f       0x37 ..\obj\ethernetif.o
 .ARM.attributes
                0x00000596       0x37 ..\obj\stm32f4xx_dcmi.o
 .ARM.attributes
                0x000005cd       0x37 ..\obj\etharp.o
 .ARM.attributes
                0x00000604       0x37 ..\obj\tasks.o
 .ARM.attributes
                0x0000063b       0x37 ..\obj\pbuf.o
 .ARM.attributes
                0x00000672       0x37 ..\obj\adc_dcmi.o
 .ARM.attributes
                0x000006a9       0x37 ..\obj\netif.o
 .ARM.attributes
                0x000006e0       0x37 ..\obj\stm32f4xx_gpio.o
 .ARM.attributes
                0x00000717       0x37 ..\obj\stm32f4xx_flash.o
 .ARM.attributes
                0x0000074e       0x37 ..\obj\sys_arch.o
 .ARM.attributes
                0x00000785       0x37 ..\obj\list.o
 .ARM.attributes
                0x000007bc       0x37 ..\obj\system_stm32f4xx.o
 .ARM.attributes
                0x000007f3       0x37 ..\obj\syscalls.o
 .ARM.attributes
                0x0000082a       0x37 ..\obj\stm32f4xx_dma.o
 .ARM.attributes
                0x00000861       0x37 ..\obj\portother.o
 .ARM.attributes
                0x00000898       0x37 ..\obj\queue.o
 .ARM.attributes
                0x000008cf       0x37 ..\obj\port.o
 .ARM.attributes
                0x00000906       0x37 ..\obj\mbinit.o
 .ARM.attributes
                0x0000093d       0x37 ..\obj\cfg_info.o
 .ARM.attributes
                0x00000974       0x37 ..\obj\udp.o
 .ARM.attributes
                0x000009ab       0x37 ..\obj\ip.o
 .ARM.attributes
                0x000009e2       0x37 ..\obj\mbfunccoils.o
 .ARM.attributes
                0x00000a19       0x37 ..\obj\icmp.o
 .ARM.attributes
                0x00000a50       0x37 ..\obj\misc.o
 .ARM.attributes
                0x00000a87       0x37 ..\obj\udp_send.o
 .ARM.attributes
                0x00000abe       0x37 ..\obj\mbtcp.o
 .ARM.attributes
                0x00000af5       0x37 ..\obj\dhcp.o
 .ARM.attributes
                0x00000b2c       0x37 ..\obj\mbfunc.o
 .ARM.attributes
                0x00000b63       0x37 ..\obj\heap_2.o
 .ARM.attributes
                0x00000b9a       0x37 ..\obj\stm32f4xx_tim.o
 .ARM.attributes
                0x00000bd1       0x37 ..\obj\tcp_out.o
 .ARM.attributes
                0x00000c08       0x37 ..\obj\raw.o
 .ARM.attributes
                0x00000c3f       0x32 c:/program files/gnu tools arm embedded/4.9 2015q2/bin/../lib/gcc/arm-none-eabi/4.9.3/../../../../arm-none-eabi/lib/armv7e-m/softfp\libg.a(lib_a-memcmp.o)
 .ARM.attributes
                0x00000c71       0x20 c:/program files/gnu tools arm embedded/4.9 2015q2/bin/../lib/gcc/arm-none-eabi/4.9.3/../../../../arm-none-eabi/lib/armv7e-m/softfp\libg.a(lib_a-memcpy.o)
 .ARM.attributes
                0x00000c91       0x32 c:/program files/gnu tools arm embedded/4.9 2015q2/bin/../lib/gcc/arm-none-eabi/4.9.3/../../../../arm-none-eabi/lib/armv7e-m/softfp\libg.a(lib_a-memset.o)
 .ARM.attributes
                0x00000cc3       0x32 c:/program files/gnu tools arm embedded/4.9 2015q2/bin/../lib/gcc/arm-none-eabi/4.9.3/../../../../arm-none-eabi/lib/armv7e-m/softfp\libg.a(lib_a-printf.o)
 .ARM.attributes
                0x00000cf5       0x32 c:/program files/gnu tools arm embedded/4.9 2015q2/bin/../lib/gcc/arm-none-eabi/4.9.3/../../../../arm-none-eabi/lib/armv7e-m/softfp\libg.a(lib_a-snprintf.o)
 .ARM.attributes
                0x00000d27       0x20 c:/program files/gnu tools arm embedded/4.9 2015q2/bin/../lib/gcc/arm-none-eabi/4.9.3/../../../../arm-none-eabi/lib/armv7e-m/softfp\libg.a(lib_a-strcmp.o)
 .ARM.attributes
                0x00000d47       0x32 c:/program files/gnu tools arm embedded/4.9 2015q2/bin/../lib/gcc/arm-none-eabi/4.9.3/../../../../arm-none-eabi/lib/armv7e-m/softfp\libg.a(lib_a-strlen.o)
 .ARM.attributes
                0x00000d79       0x32 c:/program files/gnu tools arm embedded/4.9 2015q2/bin/../lib/gcc/arm-none-eabi/4.9.3/../../../../arm-none-eabi/lib/armv7e-m/softfp\libg.a(lib_a-svfprintf.o)
 .ARM.attributes
                0x00000dab       0x32 c:/program files/gnu tools arm embedded/4.9 2015q2/bin/../lib/gcc/arm-none-eabi/4.9.3/../../../../arm-none-eabi/lib/armv7e-m/softfp\libg.a(lib_a-vfprintf.o)
 .ARM.attributes
                0x00000ddd       0x32 c:/program files/gnu tools arm embedded/4.9 2015q2/bin/../lib/gcc/arm-none-eabi/4.9.3/../../../../arm-none-eabi/lib/armv7e-m/softfp\libg.a(lib_a-vprintf.o)
 .ARM.attributes
                0x00000e0f       0x32 c:/program files/gnu tools arm embedded/4.9 2015q2/bin/../lib/gcc/arm-none-eabi/4.9.3/../../../../arm-none-eabi/lib/armv7e-m/softfp\libg.a(lib_a-wsetup.o)
 .ARM.attributes
                0x00000e41       0x32 c:/program files/gnu tools arm embedded/4.9 2015q2/bin/../lib/gcc/arm-none-eabi/4.9.3/../../../../arm-none-eabi/lib/armv7e-m/softfp\libg.a(lib_a-dtoa.o)
 .ARM.attributes
                0x00000e73       0x32 c:/program files/gnu tools arm embedded/4.9 2015q2/bin/../lib/gcc/arm-none-eabi/4.9.3/../../../../arm-none-eabi/lib/armv7e-m/softfp\libg.a(lib_a-fflush.o)
 .ARM.attributes
                0x00000ea5       0x32 c:/program files/gnu tools arm embedded/4.9 2015q2/bin/../lib/gcc/arm-none-eabi/4.9.3/../../../../arm-none-eabi/lib/armv7e-m/softfp\libg.a(lib_a-findfp.o)
 .ARM.attributes
                0x00000ed7       0x32 c:/program files/gnu tools arm embedded/4.9 2015q2/bin/../lib/gcc/arm-none-eabi/4.9.3/../../../../arm-none-eabi/lib/armv7e-m/softfp\libg.a(lib_a-freer.o)
 .ARM.attributes
                0x00000f09       0x32 c:/program files/gnu tools arm embedded/4.9 2015q2/bin/../lib/gcc/arm-none-eabi/4.9.3/../../../../arm-none-eabi/lib/armv7e-m/softfp\libg.a(lib_a-fwalk.o)
 .ARM.attributes
                0x00000f3b       0x32 c:/program files/gnu tools arm embedded/4.9 2015q2/bin/../lib/gcc/arm-none-eabi/4.9.3/../../../../arm-none-eabi/lib/armv7e-m/softfp\libg.a(lib_a-impure.o)
 .ARM.attributes
                0x00000f6d       0x32 c:/program files/gnu tools arm embedded/4.9 2015q2/bin/../lib/gcc/arm-none-eabi/4.9.3/../../../../arm-none-eabi/lib/armv7e-m/softfp\libg.a(lib_a-locale.o)
 .ARM.attributes
                0x00000f9f       0x32 c:/program files/gnu tools arm embedded/4.9 2015q2/bin/../lib/gcc/arm-none-eabi/4.9.3/../../../../arm-none-eabi/lib/armv7e-m/softfp\libg.a(lib_a-makebuf.o)
 .ARM.attributes
                0x00000fd1       0x32 c:/program files/gnu tools arm embedded/4.9 2015q2/bin/../lib/gcc/arm-none-eabi/4.9.3/../../../../arm-none-eabi/lib/armv7e-m/softfp\libg.a(lib_a-mallocr.o)
 .ARM.attributes
                0x00001003       0x32 c:/program files/gnu tools arm embedded/4.9 2015q2/bin/../lib/gcc/arm-none-eabi/4.9.3/../../../../arm-none-eabi/lib/armv7e-m/softfp\libg.a(lib_a-memchr.o)
 .ARM.attributes
                0x00001035       0x32 c:/program files/gnu tools arm embedded/4.9 2015q2/bin/../lib/gcc/arm-none-eabi/4.9.3/../../../../arm-none-eabi/lib/armv7e-m/softfp\libg.a(lib_a-mlock.o)
 .ARM.attributes
                0x00001067       0x32 c:/program files/gnu tools arm embedded/4.9 2015q2/bin/../lib/gcc/arm-none-eabi/4.9.3/../../../../arm-none-eabi/lib/armv7e-m/softfp\libg.a(lib_a-mprec.o)
 .ARM.attributes
                0x00001099       0x32 c:/program files/gnu tools arm embedded/4.9 2015q2/bin/../lib/gcc/arm-none-eabi/4.9.3/../../../../arm-none-eabi/lib/armv7e-m/softfp\libg.a(lib_a-s_fpclassify.o)
 .ARM.attributes
                0x000010cb       0x32 c:/program files/gnu tools arm embedded/4.9 2015q2/bin/../lib/gcc/arm-none-eabi/4.9.3/../../../../arm-none-eabi/lib/armv7e-m/softfp\libg.a(lib_a-sbrkr.o)
 .ARM.attributes
                0x000010fd       0x32 c:/program files/gnu tools arm embedded/4.9 2015q2/bin/../lib/gcc/arm-none-eabi/4.9.3/../../../../arm-none-eabi/lib/armv7e-m/softfp\libg.a(lib_a-stdio.o)
 .ARM.attributes
                0x0000112f       0x32 c:/program files/gnu tools arm embedded/4.9 2015q2/bin/../lib/gcc/arm-none-eabi/4.9.3/../../../../arm-none-eabi/lib/armv7e-m/softfp\libg.a(lib_a-svfiprintf.o)
 .ARM.attributes
                0x00001161       0x32 c:/program files/gnu tools arm embedded/4.9 2015q2/bin/../lib/gcc/arm-none-eabi/4.9.3/../../../../arm-none-eabi/lib/armv7e-m/softfp\libg.a(lib_a-vfiprintf.o)
 .ARM.attributes
                0x00001193       0x32 c:/program files/gnu tools arm embedded/4.9 2015q2/bin/../lib/gcc/arm-none-eabi/4.9.3/../../../../arm-none-eabi/lib/armv7e-m/softfp\libg.a(lib_a-writer.o)
 .ARM.attributes
                0x000011c5       0x32 c:/program files/gnu tools arm embedded/4.9 2015q2/bin/../lib/gcc/arm-none-eabi/4.9.3/../../../../arm-none-eabi/lib/armv7e-m/softfp\libg.a(lib_a-callocr.o)
 .ARM.attributes
                0x000011f7       0x32 c:/program files/gnu tools arm embedded/4.9 2015q2/bin/../lib/gcc/arm-none-eabi/4.9.3/../../../../arm-none-eabi/lib/armv7e-m/softfp\libg.a(lib_a-closer.o)
 .ARM.attributes
                0x00001229       0x32 c:/program files/gnu tools arm embedded/4.9 2015q2/bin/../lib/gcc/arm-none-eabi/4.9.3/../../../../arm-none-eabi/lib/armv7e-m/softfp\libg.a(lib_a-fclose.o)
 .ARM.attributes
                0x0000125b       0x32 c:/program files/gnu tools arm embedded/4.9 2015q2/bin/../lib/gcc/arm-none-eabi/4.9.3/../../../../arm-none-eabi/lib/armv7e-m/softfp\libg.a(lib_a-fputwc.o)
 .ARM.attributes
                0x0000128d       0x32 c:/program files/gnu tools arm embedded/4.9 2015q2/bin/../lib/gcc/arm-none-eabi/4.9.3/../../../../arm-none-eabi/lib/armv7e-m/softfp\libg.a(lib_a-fstatr.o)
 .ARM.attributes
                0x000012bf       0x32 c:/program files/gnu tools arm embedded/4.9 2015q2/bin/../lib/gcc/arm-none-eabi/4.9.3/../../../../arm-none-eabi/lib/armv7e-m/softfp\libg.a(lib_a-fvwrite.o)
 .ARM.attributes
                0x000012f1       0x32 c:/program files/gnu tools arm embedded/4.9 2015q2/bin/../lib/gcc/arm-none-eabi/4.9.3/../../../../arm-none-eabi/lib/armv7e-m/softfp\libg.a(lib_a-isattyr.o)
 .ARM.attributes
                0x00001323       0x32 c:/program files/gnu tools arm embedded/4.9 2015q2/bin/../lib/gcc/arm-none-eabi/4.9.3/../../../../arm-none-eabi/lib/armv7e-m/softfp\libg.a(lib_a-lseekr.o)
 .ARM.attributes
                0x00001355       0x32 c:/program files/gnu tools arm embedded/4.9 2015q2/bin/../lib/gcc/arm-none-eabi/4.9.3/../../../../arm-none-eabi/lib/armv7e-m/softfp\libg.a(lib_a-memmove.o)
 .ARM.attributes
                0x00001387       0x32 c:/program files/gnu tools arm embedded/4.9 2015q2/bin/../lib/gcc/arm-none-eabi/4.9.3/../../../../arm-none-eabi/lib/armv7e-m/softfp\libg.a(lib_a-readr.o)
 .ARM.attributes
                0x000013b9       0x32 c:/program files/gnu tools arm embedded/4.9 2015q2/bin/../lib/gcc/arm-none-eabi/4.9.3/../../../../arm-none-eabi/lib/armv7e-m/softfp\libg.a(lib_a-reallocr.o)
 .ARM.attributes
                0x000013eb       0x32 c:/program files/gnu tools arm embedded/4.9 2015q2/bin/../lib/gcc/arm-none-eabi/4.9.3/../../../../arm-none-eabi/lib/armv7e-m/softfp\libg.a(lib_a-reent.o)
 .ARM.attributes
                0x0000141d       0x32 c:/program files/gnu tools arm embedded/4.9 2015q2/bin/../lib/gcc/arm-none-eabi/4.9.3/../../../../arm-none-eabi/lib/armv7e-m/softfp\libg.a(lib_a-wbuf.o)
 .ARM.attributes
                0x0000144f       0x32 c:/program files/gnu tools arm embedded/4.9 2015q2/bin/../lib/gcc/arm-none-eabi/4.9.3/../../../../arm-none-eabi/lib/armv7e-m/softfp\libg.a(lib_a-wcrtomb.o)
 .ARM.attributes
                0x00001481       0x32 c:/program files/gnu tools arm embedded/4.9 2015q2/bin/../lib/gcc/arm-none-eabi/4.9.3/../../../../arm-none-eabi/lib/armv7e-m/softfp\libg.a(lib_a-wctomb_r.o)
 .ARM.attributes
                0x000014b3       0x22 c:/program files/gnu tools arm embedded/4.9 2015q2/bin/../lib/gcc/arm-none-eabi/4.9.3/armv7e-m/softfp\libgcc.a(_arm_addsubdf3.o)
 .ARM.attributes
                0x000014d5       0x22 c:/program files/gnu tools arm embedded/4.9 2015q2/bin/../lib/gcc/arm-none-eabi/4.9.3/armv7e-m/softfp\libgcc.a(_arm_muldivdf3.o)
 .ARM.attributes
                0x000014f7       0x22 c:/program files/gnu tools arm embedded/4.9 2015q2/bin/../lib/gcc/arm-none-eabi/4.9.3/armv7e-m/softfp\libgcc.a(_arm_cmpdf2.o)
 .ARM.attributes
                0x00001519       0x22 c:/program files/gnu tools arm embedded/4.9 2015q2/bin/../lib/gcc/arm-none-eabi/4.9.3/armv7e-m/softfp\libgcc.a(_arm_fixdfsi.o)
 .ARM.attributes
                0x0000153b       0x22 c:/program files/gnu tools arm embedded/4.9 2015q2/bin/../lib/gcc/arm-none-eabi/4.9.3/armv7e-m/softfp\libgcc.a(_aeabi_uldivmod.o)
 .ARM.attributes
                0x0000155d       0x32 c:/program files/gnu tools arm embedded/4.9 2015q2/bin/../lib/gcc/arm-none-eabi/4.9.3/armv7e-m/softfp\libgcc.a(bpabi.o)
 .ARM.attributes
                0x0000158f       0x22 c:/program files/gnu tools arm embedded/4.9 2015q2/bin/../lib/gcc/arm-none-eabi/4.9.3/armv7e-m/softfp\libgcc.a(_dvmd_tls.o)
 .ARM.attributes
                0x000015b1       0x32 c:/program files/gnu tools arm embedded/4.9 2015q2/bin/../lib/gcc/arm-none-eabi/4.9.3/armv7e-m/softfp\libgcc.a(_divdi3.o)
 .ARM.attributes
                0x000015e3       0x32 c:/program files/gnu tools arm embedded/4.9 2015q2/bin/../lib/gcc/arm-none-eabi/4.9.3/armv7e-m/softfp\libgcc.a(_udivdi3.o)

.debug_frame    0x00000000     0x812c
 .debug_frame   0x00000000       0xf4 ..\obj\stm32f4xx_syscfg.o
 .debug_frame   0x000000f4       0xec ..\obj\mem.o
 .debug_frame   0x000001e0      0x110 ..\obj\mb.o
 .debug_frame   0x000002f0       0x34 ..\obj\mbfuncdisc.o
 .debug_frame   0x00000324      0x550 ..\obj\tcp.o
 .debug_frame   0x00000874       0x98 ..\obj\portevent.o
 .debug_frame   0x0000090c      0x150 ..\obj\porttcp.o
 .debug_frame   0x00000a5c       0x58 ..\obj\mbfuncother.o
 .debug_frame   0x00000ab4      0x100 ..\obj\tcp_in.o
 .debug_frame   0x00000bb4       0x88 ..\obj\memp.o
 .debug_frame   0x00000c3c      0x1e0 ..\obj\tcpip.o
 .debug_frame   0x00000e1c       0x88 ..\obj\mbutils.o
 .debug_frame   0x00000ea4       0x4c ..\obj\startup_stm32f4xx.o
 .debug_frame   0x00000ef0      0xc84 ..\obj\stm32f4x7_eth.o
 .debug_frame   0x00001b74       0xf4 ..\obj\ip_addr.o
 .debug_frame   0x00001c68       0xa0 ..\obj\mbfuncholding.o
 .debug_frame   0x00001d08       0xc8 ..\obj\inet_chksum.o
 .debug_frame   0x00001dd0       0x80 ..\obj\main.o
 .debug_frame   0x00001e50      0x6d4 ..\obj\stm32f4xx_rcc.o
 .debug_frame   0x00002524       0xd4 ..\obj\stm32f4xx_it.o
 .debug_frame   0x000025f8      0x144 ..\obj\timers.o
 .debug_frame   0x0000273c       0x2c ..\obj\init.o
 .debug_frame   0x00002768       0x9c ..\obj\stm32f4x7_eth_bsp.o
 .debug_frame   0x00002804       0x34 ..\obj\mbfuncinput.o
 .debug_frame   0x00002838       0xa8 ..\obj\def.o
 .debug_frame   0x000028e0       0xe8 ..\obj\ethernetif.o
 .debug_frame   0x000029c8      0x258 ..\obj\stm32f4xx_dcmi.o
 .debug_frame   0x00002c20      0x214 ..\obj\etharp.o
 .debug_frame   0x00002e34      0x734 ..\obj\tasks.o
 .debug_frame   0x00003568      0x288 ..\obj\pbuf.o
 .debug_frame   0x000037f0      0x100 ..\obj\adc_dcmi.o
 .debug_frame   0x000038f0      0x1f4 ..\obj\netif.o
 .debug_frame   0x00003ae4      0x23c ..\obj\stm32f4xx_gpio.o
 .debug_frame   0x00003d20      0x44c ..\obj\stm32f4xx_flash.o
 .debug_frame   0x0000416c      0x2c4 ..\obj\sys_arch.o
 .debug_frame   0x00004430       0xd8 ..\obj\list.o
 .debug_frame   0x00004508       0x7c ..\obj\system_stm32f4xx.o
 .debug_frame   0x00004584      0x168 ..\obj\syscalls.o
 .debug_frame   0x000046ec      0x308 ..\obj\stm32f4xx_dma.o
 .debug_frame   0x000049f4      0x108 ..\obj\portother.o
 .debug_frame   0x00004afc      0x3d8 ..\obj\queue.o
 .debug_frame   0x00004ed4      0x19c ..\obj\port.o
 .debug_frame   0x00005070       0x54 ..\obj\mbinit.o
 .debug_frame   0x000050c4       0xe0 ..\obj\cfg_info.o
 .debug_frame   0x000051a4      0x1d4 ..\obj\udp.o
 .debug_frame   0x00005378       0xac ..\obj\ip.o
 .debug_frame   0x00005424       0x7c ..\obj\mbfunccoils.o
 .debug_frame   0x000054a0       0x84 ..\obj\icmp.o
 .debug_frame   0x00005524       0xd8 ..\obj\misc.o
 .debug_frame   0x000055fc       0xa0 ..\obj\udp_send.o
 .debug_frame   0x0000569c       0xb8 ..\obj\mbtcp.o
 .debug_frame   0x00005754      0x518 ..\obj\dhcp.o
 .debug_frame   0x00005c6c       0xa8 ..\obj\mbfunc.o
 .debug_frame   0x00005d14       0xc0 ..\obj\heap_2.o
 .debug_frame   0x00005dd4      0xe54 ..\obj\stm32f4xx_tim.o
 .debug_frame   0x00006c28      0x288 ..\obj\tcp_out.o
 .debug_frame   0x00006eb0      0x144 ..\obj\raw.o
 .debug_frame   0x00006ff4       0x38 c:/program files/gnu tools arm embedded/4.9 2015q2/bin/../lib/gcc/arm-none-eabi/4.9.3/../../../../arm-none-eabi/lib/armv7e-m/softfp\libg.a(lib_a-memcmp.o)
 .debug_frame   0x0000702c       0x34 c:/program files/gnu tools arm embedded/4.9 2015q2/bin/../lib/gcc/arm-none-eabi/4.9.3/../../../../arm-none-eabi/lib/armv7e-m/softfp\libg.a(lib_a-memset.o)
 .debug_frame   0x00007060       0x74 c:/program files/gnu tools arm embedded/4.9 2015q2/bin/../lib/gcc/arm-none-eabi/4.9.3/../../../../arm-none-eabi/lib/armv7e-m/softfp\libg.a(lib_a-printf.o)
 .debug_frame   0x000070d4       0xd0 c:/program files/gnu tools arm embedded/4.9 2015q2/bin/../lib/gcc/arm-none-eabi/4.9.3/../../../../arm-none-eabi/lib/armv7e-m/softfp\libg.a(lib_a-snprintf.o)
 .debug_frame   0x000071a4       0x20 c:/program files/gnu tools arm embedded/4.9 2015q2/bin/../lib/gcc/arm-none-eabi/4.9.3/../../../../arm-none-eabi/lib/armv7e-m/softfp\libg.a(lib_a-strlen.o)
 .debug_frame   0x000071c4       0x40 c:/program files/gnu tools arm embedded/4.9 2015q2/bin/../lib/gcc/arm-none-eabi/4.9.3/../../../../arm-none-eabi/lib/armv7e-m/softfp\libg.a(lib_a-svfprintf.o)
 .debug_frame   0x00007204       0x90 c:/program files/gnu tools arm embedded/4.9 2015q2/bin/../lib/gcc/arm-none-eabi/4.9.3/../../../../arm-none-eabi/lib/armv7e-m/softfp\libg.a(lib_a-vfprintf.o)
 .debug_frame   0x00007294       0x3c c:/program files/gnu tools arm embedded/4.9 2015q2/bin/../lib/gcc/arm-none-eabi/4.9.3/../../../../arm-none-eabi/lib/armv7e-m/softfp\libg.a(lib_a-vprintf.o)
 .debug_frame   0x000072d0       0x2c c:/program files/gnu tools arm embedded/4.9 2015q2/bin/../lib/gcc/arm-none-eabi/4.9.3/../../../../arm-none-eabi/lib/armv7e-m/softfp\libg.a(lib_a-wsetup.o)
 .debug_frame   0x000072fc       0x88 c:/program files/gnu tools arm embedded/4.9 2015q2/bin/../lib/gcc/arm-none-eabi/4.9.3/../../../../arm-none-eabi/lib/armv7e-m/softfp\libg.a(lib_a-dtoa.o)
 .debug_frame   0x00007384       0x6c c:/program files/gnu tools arm embedded/4.9 2015q2/bin/../lib/gcc/arm-none-eabi/4.9.3/../../../../arm-none-eabi/lib/armv7e-m/softfp\libg.a(lib_a-fflush.o)
 .debug_frame   0x000073f0      0x124 c:/program files/gnu tools arm embedded/4.9 2015q2/bin/../lib/gcc/arm-none-eabi/4.9.3/../../../../arm-none-eabi/lib/armv7e-m/softfp\libg.a(lib_a-findfp.o)
 .debug_frame   0x00007514       0x74 c:/program files/gnu tools arm embedded/4.9 2015q2/bin/../lib/gcc/arm-none-eabi/4.9.3/../../../../arm-none-eabi/lib/armv7e-m/softfp\libg.a(lib_a-freer.o)
 .debug_frame   0x00007588       0x54 c:/program files/gnu tools arm embedded/4.9 2015q2/bin/../lib/gcc/arm-none-eabi/4.9.3/../../../../arm-none-eabi/lib/armv7e-m/softfp\libg.a(lib_a-fwalk.o)
 .debug_frame   0x000075dc       0x9c c:/program files/gnu tools arm embedded/4.9 2015q2/bin/../lib/gcc/arm-none-eabi/4.9.3/../../../../arm-none-eabi/lib/armv7e-m/softfp\libg.a(lib_a-locale.o)
 .debug_frame   0x00007678       0x48 c:/program files/gnu tools arm embedded/4.9 2015q2/bin/../lib/gcc/arm-none-eabi/4.9.3/../../../../arm-none-eabi/lib/armv7e-m/softfp\libg.a(lib_a-makebuf.o)
 .debug_frame   0x000076c0       0x58 c:/program files/gnu tools arm embedded/4.9 2015q2/bin/../lib/gcc/arm-none-eabi/4.9.3/../../../../arm-none-eabi/lib/armv7e-m/softfp\libg.a(lib_a-mallocr.o)
 .debug_frame   0x00007718       0x3c c:/program files/gnu tools arm embedded/4.9 2015q2/bin/../lib/gcc/arm-none-eabi/4.9.3/../../../../arm-none-eabi/lib/armv7e-m/softfp\libg.a(lib_a-memchr.o)
 .debug_frame   0x00007754       0x30 c:/program files/gnu tools arm embedded/4.9 2015q2/bin/../lib/gcc/arm-none-eabi/4.9.3/../../../../arm-none-eabi/lib/armv7e-m/softfp\libg.a(lib_a-mlock.o)
 .debug_frame   0x00007784      0x268 c:/program files/gnu tools arm embedded/4.9 2015q2/bin/../lib/gcc/arm-none-eabi/4.9.3/../../../../arm-none-eabi/lib/armv7e-m/softfp\libg.a(lib_a-mprec.o)
 .debug_frame   0x000079ec       0x34 c:/program files/gnu tools arm embedded/4.9 2015q2/bin/../lib/gcc/arm-none-eabi/4.9.3/../../../../arm-none-eabi/lib/armv7e-m/softfp\libg.a(lib_a-s_fpclassify.o)
 .debug_frame   0x00007a20       0x2c c:/program files/gnu tools arm embedded/4.9 2015q2/bin/../lib/gcc/arm-none-eabi/4.9.3/../../../../arm-none-eabi/lib/armv7e-m/softfp\libg.a(lib_a-sbrkr.o)
 .debug_frame   0x00007a4c       0x88 c:/program files/gnu tools arm embedded/4.9 2015q2/bin/../lib/gcc/arm-none-eabi/4.9.3/../../../../arm-none-eabi/lib/armv7e-m/softfp\libg.a(lib_a-stdio.o)
 .debug_frame   0x00007ad4       0x78 c:/program files/gnu tools arm embedded/4.9 2015q2/bin/../lib/gcc/arm-none-eabi/4.9.3/../../../../arm-none-eabi/lib/armv7e-m/softfp\libg.a(lib_a-svfiprintf.o)
 .debug_frame   0x00007b4c       0xd8 c:/program files/gnu tools arm embedded/4.9 2015q2/bin/../lib/gcc/arm-none-eabi/4.9.3/../../../../arm-none-eabi/lib/armv7e-m/softfp\libg.a(lib_a-vfiprintf.o)
 .debug_frame   0x00007c24       0x2c c:/program files/gnu tools arm embedded/4.9 2015q2/bin/../lib/gcc/arm-none-eabi/4.9.3/../../../../arm-none-eabi/lib/armv7e-m/softfp\libg.a(lib_a-writer.o)
 .debug_frame   0x00007c50       0x28 c:/program files/gnu tools arm embedded/4.9 2015q2/bin/../lib/gcc/arm-none-eabi/4.9.3/../../../../arm-none-eabi/lib/armv7e-m/softfp\libg.a(lib_a-callocr.o)
 .debug_frame   0x00007c78       0x2c c:/program files/gnu tools arm embedded/4.9 2015q2/bin/../lib/gcc/arm-none-eabi/4.9.3/../../../../arm-none-eabi/lib/armv7e-m/softfp\libg.a(lib_a-closer.o)
 .debug_frame   0x00007ca4       0x44 c:/program files/gnu tools arm embedded/4.9 2015q2/bin/../lib/gcc/arm-none-eabi/4.9.3/../../../../arm-none-eabi/lib/armv7e-m/softfp\libg.a(lib_a-fclose.o)
 .debug_frame   0x00007ce8       0x84 c:/program files/gnu tools arm embedded/4.9 2015q2/bin/../lib/gcc/arm-none-eabi/4.9.3/../../../../arm-none-eabi/lib/armv7e-m/softfp\libg.a(lib_a-fputwc.o)
 .debug_frame   0x00007d6c       0x2c c:/program files/gnu tools arm embedded/4.9 2015q2/bin/../lib/gcc/arm-none-eabi/4.9.3/../../../../arm-none-eabi/lib/armv7e-m/softfp\libg.a(lib_a-fstatr.o)
 .debug_frame   0x00007d98       0x68 c:/program files/gnu tools arm embedded/4.9 2015q2/bin/../lib/gcc/arm-none-eabi/4.9.3/../../../../arm-none-eabi/lib/armv7e-m/softfp\libg.a(lib_a-fvwrite.o)
 .debug_frame   0x00007e00       0x2c c:/program files/gnu tools arm embedded/4.9 2015q2/bin/../lib/gcc/arm-none-eabi/4.9.3/../../../../arm-none-eabi/lib/armv7e-m/softfp\libg.a(lib_a-isattyr.o)
 .debug_frame   0x00007e2c       0x2c c:/program files/gnu tools arm embedded/4.9 2015q2/bin/../lib/gcc/arm-none-eabi/4.9.3/../../../../arm-none-eabi/lib/armv7e-m/softfp\libg.a(lib_a-lseekr.o)
 .debug_frame   0x00007e58       0x30 c:/program files/gnu tools arm embedded/4.9 2015q2/bin/../lib/gcc/arm-none-eabi/4.9.3/../../../../arm-none-eabi/lib/armv7e-m/softfp\libg.a(lib_a-memmove.o)
 .debug_frame   0x00007e88       0x2c c:/program files/gnu tools arm embedded/4.9 2015q2/bin/../lib/gcc/arm-none-eabi/4.9.3/../../../../arm-none-eabi/lib/armv7e-m/softfp\libg.a(lib_a-readr.o)
 .debug_frame   0x00007eb4       0x60 c:/program files/gnu tools arm embedded/4.9 2015q2/bin/../lib/gcc/arm-none-eabi/4.9.3/../../../../arm-none-eabi/lib/armv7e-m/softfp\libg.a(lib_a-reallocr.o)
 .debug_frame   0x00007f14       0x58 c:/program files/gnu tools arm embedded/4.9 2015q2/bin/../lib/gcc/arm-none-eabi/4.9.3/../../../../arm-none-eabi/lib/armv7e-m/softfp\libg.a(lib_a-reent.o)
 .debug_frame   0x00007f6c       0x3c c:/program files/gnu tools arm embedded/4.9 2015q2/bin/../lib/gcc/arm-none-eabi/4.9.3/../../../../arm-none-eabi/lib/armv7e-m/softfp\libg.a(lib_a-wbuf.o)
 .debug_frame   0x00007fa8       0x60 c:/program files/gnu tools arm embedded/4.9 2015q2/bin/../lib/gcc/arm-none-eabi/4.9.3/../../../../arm-none-eabi/lib/armv7e-m/softfp\libg.a(lib_a-wcrtomb.o)
 .debug_frame   0x00008008       0x48 c:/program files/gnu tools arm embedded/4.9 2015q2/bin/../lib/gcc/arm-none-eabi/4.9.3/../../../../arm-none-eabi/lib/armv7e-m/softfp\libg.a(lib_a-wctomb_r.o)
 .debug_frame   0x00008050       0x28 c:/program files/gnu tools arm embedded/4.9 2015q2/bin/../lib/gcc/arm-none-eabi/4.9.3/armv7e-m/softfp\libgcc.a(_aeabi_uldivmod.o)
 .debug_frame   0x00008078       0x50 c:/program files/gnu tools arm embedded/4.9 2015q2/bin/../lib/gcc/arm-none-eabi/4.9.3/armv7e-m/softfp\libgcc.a(bpabi.o)
 .debug_frame   0x000080c8       0x34 c:/program files/gnu tools arm embedded/4.9 2015q2/bin/../lib/gcc/arm-none-eabi/4.9.3/armv7e-m/softfp\libgcc.a(_divdi3.o)
 .debug_frame   0x000080fc       0x30 c:/program files/gnu tools arm embedded/4.9 2015q2/bin/../lib/gcc/arm-none-eabi/4.9.3/armv7e-m/softfp\libgcc.a(_udivdi3.o)
